((dp0
VMSO201A
p1
(dp2
g1
I2
sVCOM200
p3
I2
sVPHY616A
p4
I1
sVMSO203B
p5
I2
sVECO311A
p6
I2
sVCS628A
p7
I1
sVLIF101A
p8
I2
sVECO506A
p9
I2
sVMTH423A
p10
I2
sVPHY103A
p11
I2
sVECO221A
p12
I2
sVPHY473A
p13
I1
sVECO398A
p14
I2
sVPE101A
p15
I2
sVECO541A
p16
I2
sVPHY101A
p17
I2
sVMTH302A
p18
I2
sVECO753A
p19
I2
sVECO760A
p20
I2
sVTA201A
p21
I2
sVECO502A
p22
I2
sVCS350A
p23
I1
sVECO413A
p24
I2
sVECO543A
p25
I2
sVESO201A
p26
I2
sVESC201A
p27
I2
sVESO207A
p28
I2
sVESO203A
p29
I1
sVCHM101A
p30
I2
sVECO261A
p31
I2
sVPHY552A
p32
I1
sVPSO201A
p33
I1
sVECO411A
p34
I2
sVPHY461A
p35
I1
sVPSY151A
p36
I2
sVPHY401A
p37
I1
sVMTH421A
p38
I2
sVMTH308A
p39
I2
sVMTH101A
p40
I2
sVTA101A
p41
I2
sVECO341A
p42
I2
sVMSO202A
p43
I2
sVPHY301A
p44
I1
sVART105A
p45
I1
sVPHY226B
p46
I1
sVENG112C
p47
I1
sVECO321A
p48
I2
sVPE102A
p49
I2
sVPHY210A
p50
I1
sVPHY102A
p51
I2
sVECO201A
p52
I2
sVESC101A
p53
I2
sVECO399A
p54
I2
sVECO301A
p55
I2
sVESO208A
p56
I2
sVENG433A
p57
I2
sVPHY399A
p58
I1
sVPHI141A
p59
I2
sVMTH301A
p60
I2
sVPHY306A
p61
I1
sVECO397A
p62
I2
sVMTH305A
p63
I2
sVTA202A
p64
I2
sVCS654A
p65
I1
sVPHY431A
p66
I1
sVPHY224A
p67
I1
sVCHM102A
p68
I2
sVMTH102A
p69
I2
sVPSY458A
p70
I2
sVPHY315A
p71
I1
sVECO342A
p72
I2
sVESO204A
p73
I1
sVPHY412A
p74
I1
sVPHY421A
p75
I1
sVCS315A
p76
I1
ssg3
(dp77
g1
I2
sg3
I3
sg4
I2
sg5
I2
sg6
I2
sg7
I2
sg8
I3
sg9
I2
sg10
I2
sg11
I3
sg12
I3
sg13
I2
sg14
I2
sg15
I3
sg16
I2
sg17
I3
sg18
I2
sg19
I2
sg20
I2
sg21
I3
sg22
I2
sg23
I2
sg24
I2
sg25
I2
sg26
I2
sg27
I3
sg28
I3
sg29
I2
sg30
I3
sg31
I2
sg32
I2
sg33
I2
sg34
I2
sg35
I2
sg36
I2
sg37
I2
sg38
I2
sg39
I2
sg40
I3
sg41
I3
sg42
I2
sg43
I2
sg44
I2
sg45
I2
sg46
I2
sg47
I2
sg48
I2
sg49
I3
sg50
I2
sg51
I3
sg52
I2
sg53
I3
sg54
I2
sg55
I2
sg56
I2
sg57
I2
sg58
I2
sg59
I2
sg60
I2
sg61
I2
sg62
I2
sg63
I2
sg64
I3
sg65
I2
sg66
I2
sg67
I2
sg68
I3
sg69
I3
sg70
I2
sg71
I2
sg72
I2
sg73
I2
sg74
I2
sg75
I2
sg76
I2
ssg4
(dp78
g1
I1
sg3
I2
sg4
I2
sg5
I1
sg6
I1
sg7
I2
sg8
I2
sg9
I1
sg10
I1
sg11
I2
sg12
I2
sg13
I2
sg14
I1
sg15
I2
sg16
I1
sg17
I2
sg18
I1
sg19
I1
sg20
I1
sg21
I2
sg22
I1
sg23
I2
sg24
I1
sg25
I1
sg26
I1
sg27
I2
sg28
I2
sg29
I2
sg30
I2
sg31
I1
sg32
I2
sg33
I2
sg34
I1
sg35
I2
sg36
I1
sg37
I2
sg38
I1
sg39
I1
sg40
I2
sg41
I2
sg42
I1
sg43
I1
sg44
I2
sg45
I2
sg46
I2
sg47
I2
sg48
I1
sg49
I2
sg50
I2
sg51
I2
sg52
I1
sg53
I2
sg54
I1
sg55
I1
sg56
I1
sg57
I1
sg58
I2
sg59
I1
sg60
I1
sg61
I2
sg62
I1
sg63
I1
sg64
I2
sg65
I2
sg66
I2
sg67
I2
sg68
I2
sg69
I2
sg70
I1
sg71
I2
sg72
I1
sg73
I2
sg74
I2
sg75
I2
sg76
I2
ssg5
(dp79
g1
I2
sg3
I2
sg4
I1
sg5
I2
sg6
I2
sg7
I1
sg8
I2
sg9
I2
sg10
I2
sg11
I2
sg12
I2
sg13
I1
sg14
I2
sg15
I2
sg16
I2
sg17
I2
sg18
I2
sg19
I2
sg20
I2
sg21
I2
sg22
I2
sg23
I1
sg24
I2
sg25
I2
sg26
I2
sg27
I2
sg28
I2
sg29
I1
sg30
I2
sg31
I2
sg32
I1
sg33
I1
sg34
I2
sg35
I1
sg36
I2
sg37
I1
sg38
I2
sg39
I2
sg40
I2
sg41
I2
sg42
I2
sg43
I2
sg44
I1
sg45
I1
sg46
I1
sg47
I1
sg48
I2
sg49
I2
sg50
I1
sg51
I2
sg52
I2
sg53
I2
sg54
I2
sg55
I2
sg56
I2
sg57
I2
sg58
I1
sg59
I2
sg60
I2
sg61
I1
sg62
I2
sg63
I2
sg64
I2
sg65
I1
sg66
I1
sg67
I1
sg68
I2
sg69
I2
sg70
I2
sg71
I1
sg72
I2
sg73
I1
sg74
I1
sg75
I1
sg76
I1
ssg6
(dp80
g1
I2
sg3
I2
sg4
I1
sg5
I2
sg6
I2
sg7
I1
sg8
I2
sg9
I2
sg10
I2
sg11
I2
sg12
I2
sg13
I1
sg14
I2
sg15
I2
sg16
I2
sg17
I2
sg18
I2
sg19
I2
sg20
I2
sg21
I2
sg22
I2
sg23
I1
sg24
I2
sg25
I2
sg26
I2
sg27
I2
sg28
I2
sg29
I1
sg30
I2
sg31
I2
sg32
I1
sg33
I1
sg34
I2
sg35
I1
sg36
I2
sg37
I1
sg38
I2
sg39
I2
sg40
I2
sg41
I2
sg42
I2
sg43
I2
sg44
I1
sg45
I1
sg46
I1
sg47
I1
sg48
I2
sg49
I2
sg50
I1
sg51
I2
sg52
I2
sg53
I2
sg54
I2
sg55
I2
sg56
I2
sg57
I2
sg58
I1
sg59
I2
sg60
I2
sg61
I1
sg62
I2
sg63
I2
sg64
I2
sg65
I1
sg66
I1
sg67
I1
sg68
I2
sg69
I2
sg70
I2
sg71
I1
sg72
I2
sg73
I1
sg74
I1
sg75
I1
sg76
I1
ssg7
(dp81
g1
I1
sg3
I2
sg4
I2
sg5
I1
sg6
I1
sg7
I2
sg8
I2
sg9
I1
sg10
I1
sg11
I2
sg12
I2
sg13
I2
sg14
I1
sg15
I2
sg16
I1
sg17
I2
sg18
I1
sg19
I1
sg20
I1
sg21
I2
sg22
I1
sg23
I2
sg24
I1
sg25
I1
sg26
I1
sg27
I2
sg28
I2
sg29
I2
sg30
I2
sg31
I1
sg32
I2
sg33
I2
sg34
I1
sg35
I2
sg36
I1
sg37
I2
sg38
I1
sg39
I1
sg40
I2
sg41
I2
sg42
I1
sg43
I1
sg44
I2
sg45
I2
sg46
I2
sg47
I2
sg48
I1
sg49
I2
sg50
I2
sg51
I2
sg52
I1
sg53
I2
sg54
I1
sg55
I1
sg56
I1
sg57
I1
sg58
I2
sg59
I1
sg60
I1
sg61
I2
sg62
I1
sg63
I1
sg64
I2
sg65
I2
sg66
I2
sg67
I2
sg68
I2
sg69
I2
sg70
I1
sg71
I2
sg72
I1
sg73
I2
sg74
I2
sg75
I2
sg76
I2
ssg8
(dp82
g1
I2
sg3
I3
sg4
I2
sg5
I2
sg6
I2
sg7
I2
sg8
I3
sg9
I2
sg10
I2
sg11
I3
sg12
I3
sg13
I2
sg14
I2
sg15
I3
sg16
I2
sg17
I3
sg18
I2
sg19
I2
sg20
I2
sg21
I3
sg22
I2
sg23
I2
sg24
I2
sg25
I2
sg26
I2
sg27
I3
sg28
I3
sg29
I2
sg30
I3
sg31
I2
sg32
I2
sg33
I2
sg34
I2
sg35
I2
sg36
I2
sg37
I2
sg38
I2
sg39
I2
sg40
I3
sg41
I3
sg42
I2
sg43
I2
sg44
I2
sg45
I2
sg46
I2
sg47
I2
sg48
I2
sg49
I3
sg50
I2
sg51
I3
sg52
I2
sg53
I3
sg54
I2
sg55
I2
sg56
I2
sg57
I2
sg58
I2
sg59
I2
sg60
I2
sg61
I2
sg62
I2
sg63
I2
sg64
I3
sg65
I2
sg66
I2
sg67
I2
sg68
I3
sg69
I3
sg70
I2
sg71
I2
sg72
I2
sg73
I2
sg74
I2
sg75
I2
sg76
I2
ssg9
(dp83
g1
I2
sg3
I2
sg4
I1
sg5
I2
sg6
I2
sg7
I1
sg8
I2
sg9
I2
sg10
I2
sg11
I2
sg12
I2
sg13
I1
sg14
I2
sg15
I2
sg16
I2
sg17
I2
sg18
I2
sg19
I2
sg20
I2
sg21
I2
sg22
I2
sg23
I1
sg24
I2
sg25
I2
sg26
I2
sg27
I2
sg28
I2
sg29
I1
sg30
I2
sg31
I2
sg32
I1
sg33
I1
sg34
I2
sg35
I1
sg36
I2
sg37
I1
sg38
I2
sg39
I2
sg40
I2
sg41
I2
sg42
I2
sg43
I2
sg44
I1
sg45
I1
sg46
I1
sg47
I1
sg48
I2
sg49
I2
sg50
I1
sg51
I2
sg52
I2
sg53
I2
sg54
I2
sg55
I2
sg56
I2
sg57
I2
sg58
I1
sg59
I2
sg60
I2
sg61
I1
sg62
I2
sg63
I2
sg64
I2
sg65
I1
sg66
I1
sg67
I1
sg68
I2
sg69
I2
sg70
I2
sg71
I1
sg72
I2
sg73
I1
sg74
I1
sg75
I1
sg76
I1
ssg10
(dp84
g1
I2
sg3
I2
sg4
I1
sg5
I2
sg6
I2
sg7
I1
sg8
I2
sg9
I2
sg10
I2
sg11
I2
sg12
I2
sg13
I1
sg14
I2
sg15
I2
sg16
I2
sg17
I2
sg18
I2
sg19
I2
sg20
I2
sg21
I2
sg22
I2
sg23
I1
sg24
I2
sg25
I2
sg26
I2
sg27
I2
sg28
I2
sg29
I1
sg30
I2
sg31
I2
sg32
I1
sg33
I1
sg34
I2
sg35
I1
sg36
I2
sg37
I1
sg38
I2
sg39
I2
sg40
I2
sg41
I2
sg42
I2
sg43
I2
sg44
I1
sg45
I1
sg46
I1
sg47
I1
sg48
I2
sg49
I2
sg50
I1
sg51
I2
sg52
I2
sg53
I2
sg54
I2
sg55
I2
sg56
I2
sg57
I2
sg58
I1
sg59
I2
sg60
I2
sg61
I1
sg62
I2
sg63
I2
sg64
I2
sg65
I1
sg66
I1
sg67
I1
sg68
I2
sg69
I2
sg70
I2
sg71
I1
sg72
I2
sg73
I1
sg74
I1
sg75
I1
sg76
I1
ssg11
(dp85
g1
I2
sg3
I3
sg4
I2
sg5
I2
sg6
I2
sg7
I2
sg8
I3
sg9
I2
sg10
I2
sg11
I3
sg12
I3
sg13
I2
sg14
I2
sg15
I3
sg16
I2
sg17
I3
sg18
I2
sg19
I2
sg20
I2
sg21
I3
sg22
I2
sg23
I2
sg24
I2
sg25
I2
sg26
I2
sg27
I3
sg28
I3
sg29
I2
sg30
I3
sg31
I2
sg32
I2
sg33
I2
sg34
I2
sg35
I2
sg36
I2
sg37
I2
sg38
I2
sg39
I2
sg40
I3
sg41
I3
sg42
I2
sg43
I2
sg44
I2
sg45
I2
sg46
I2
sg47
I2
sg48
I2
sg49
I3
sg50
I2
sg51
I3
sg52
I2
sg53
I3
sg54
I2
sg55
I2
sg56
I2
sg57
I2
sg58
I2
sg59
I2
sg60
I2
sg61
I2
sg62
I2
sg63
I2
sg64
I3
sg65
I2
sg66
I2
sg67
I2
sg68
I3
sg69
I3
sg70
I2
sg71
I2
sg72
I2
sg73
I2
sg74
I2
sg75
I2
sg76
I2
ssg12
(dp86
g1
I2
sg3
I3
sg4
I2
sg5
I2
sg6
I2
sg7
I2
sg8
I3
sg9
I2
sg10
I2
sg11
I3
sg12
I3
sg13
I2
sg14
I2
sg15
I3
sg16
I2
sg17
I3
sg18
I2
sg19
I2
sg20
I2
sg21
I3
sg22
I2
sg23
I2
sg24
I2
sg25
I2
sg26
I2
sg27
I3
sg28
I3
sg29
I2
sg30
I3
sg31
I2
sg32
I2
sg33
I2
sg34
I2
sg35
I2
sg36
I2
sg37
I2
sg38
I2
sg39
I2
sg40
I3
sg41
I3
sg42
I2
sg43
I2
sg44
I2
sg45
I2
sg46
I2
sg47
I2
sg48
I2
sg49
I3
sg50
I2
sg51
I3
sg52
I2
sg53
I3
sg54
I2
sg55
I2
sg56
I2
sg57
I2
sg58
I2
sg59
I2
sg60
I2
sg61
I2
sg62
I2
sg63
I2
sg64
I3
sg65
I2
sg66
I2
sg67
I2
sg68
I3
sg69
I3
sg70
I2
sg71
I2
sg72
I2
sg73
I2
sg74
I2
sg75
I2
sg76
I2
ssg13
(dp87
g1
I1
sg3
I2
sg4
I2
sg5
I1
sg6
I1
sg7
I2
sg8
I2
sg9
I1
sg10
I1
sg11
I2
sg12
I2
sg13
I2
sg14
I1
sg15
I2
sg16
I1
sg17
I2
sg18
I1
sg19
I1
sg20
I1
sg21
I2
sg22
I1
sg23
I2
sg24
I1
sg25
I1
sg26
I1
sg27
I2
sg28
I2
sg29
I2
sg30
I2
sg31
I1
sg32
I2
sg33
I2
sg34
I1
sg35
I2
sg36
I1
sg37
I2
sg38
I1
sg39
I1
sg40
I2
sg41
I2
sg42
I1
sg43
I1
sg44
I2
sg45
I2
sg46
I2
sg47
I2
sg48
I1
sg49
I2
sg50
I2
sg51
I2
sg52
I1
sg53
I2
sg54
I1
sg55
I1
sg56
I1
sg57
I1
sg58
I2
sg59
I1
sg60
I1
sg61
I2
sg62
I1
sg63
I1
sg64
I2
sg65
I2
sg66
I2
sg67
I2
sg68
I2
sg69
I2
sg70
I1
sg71
I2
sg72
I1
sg73
I2
sg74
I2
sg75
I2
sg76
I2
ssg14
(dp88
g1
I2
sg3
I2
sg4
I1
sg5
I2
sg6
I2
sg7
I1
sg8
I2
sg9
I2
sg10
I2
sg11
I2
sg12
I2
sg13
I1
sg14
I2
sg15
I2
sg16
I2
sg17
I2
sg18
I2
sg19
I2
sg20
I2
sg21
I2
sg22
I2
sg23
I1
sg24
I2
sg25
I2
sg26
I2
sg27
I2
sg28
I2
sg29
I1
sg30
I2
sg31
I2
sg32
I1
sg33
I1
sg34
I2
sg35
I1
sg36
I2
sg37
I1
sg38
I2
sg39
I2
sg40
I2
sg41
I2
sg42
I2
sg43
I2
sg44
I1
sg45
I1
sg46
I1
sg47
I1
sg48
I2
sg49
I2
sg50
I1
sg51
I2
sg52
I2
sg53
I2
sg54
I2
sg55
I2
sg56
I2
sg57
I2
sg58
I1
sg59
I2
sg60
I2
sg61
I1
sg62
I2
sg63
I2
sg64
I2
sg65
I1
sg66
I1
sg67
I1
sg68
I2
sg69
I2
sg70
I2
sg71
I1
sg72
I2
sg73
I1
sg74
I1
sg75
I1
sg76
I1
ssg15
(dp89
g1
I2
sg3
I3
sg4
I2
sg5
I2
sg6
I2
sg7
I2
sg8
I3
sg9
I2
sg10
I2
sg11
I3
sg12
I3
sg13
I2
sg14
I2
sg15
I3
sg16
I2
sg17
I3
sg18
I2
sg19
I2
sg20
I2
sg21
I3
sg22
I2
sg23
I2
sg24
I2
sg25
I2
sg26
I2
sg27
I3
sg28
I3
sg29
I2
sg30
I3
sg31
I2
sg32
I2
sg33
I2
sg34
I2
sg35
I2
sg36
I2
sg37
I2
sg38
I2
sg39
I2
sg40
I3
sg41
I3
sg42
I2
sg43
I2
sg44
I2
sg45
I2
sg46
I2
sg47
I2
sg48
I2
sg49
I3
sg50
I2
sg51
I3
sg52
I2
sg53
I3
sg54
I2
sg55
I2
sg56
I2
sg57
I2
sg58
I2
sg59
I2
sg60
I2
sg61
I2
sg62
I2
sg63
I2
sg64
I3
sg65
I2
sg66
I2
sg67
I2
sg68
I3
sg69
I3
sg70
I2
sg71
I2
sg72
I2
sg73
I2
sg74
I2
sg75
I2
sg76
I2
ssg16
(dp90
g1
I2
sg3
I2
sg4
I1
sg5
I2
sg6
I2
sg7
I1
sg8
I2
sg9
I2
sg10
I2
sg11
I2
sg12
I2
sg13
I1
sg14
I2
sg15
I2
sg16
I2
sg17
I2
sg18
I2
sg19
I2
sg20
I2
sg21
I2
sg22
I2
sg23
I1
sg24
I2
sg25
I2
sg26
I2
sg27
I2
sg28
I2
sg29
I1
sg30
I2
sg31
I2
sg32
I1
sg33
I1
sg34
I2
sg35
I1
sg36
I2
sg37
I1
sg38
I2
sg39
I2
sg40
I2
sg41
I2
sg42
I2
sg43
I2
sg44
I1
sg45
I1
sg46
I1
sg47
I1
sg48
I2
sg49
I2
sg50
I1
sg51
I2
sg52
I2
sg53
I2
sg54
I2
sg55
I2
sg56
I2
sg57
I2
sg58
I1
sg59
I2
sg60
I2
sg61
I1
sg62
I2
sg63
I2
sg64
I2
sg65
I1
sg66
I1
sg67
I1
sg68
I2
sg69
I2
sg70
I2
sg71
I1
sg72
I2
sg73
I1
sg74
I1
sg75
I1
sg76
I1
ssg17
(dp91
g1
I2
sg3
I3
sg4
I2
sg5
I2
sg6
I2
sg7
I2
sg8
I3
sg9
I2
sg10
I2
sg11
I3
sg12
I3
sg13
I2
sg14
I2
sg15
I3
sg16
I2
sg17
I3
sg18
I2
sg19
I2
sg20
I2
sg21
I3
sg22
I2
sg23
I2
sg24
I2
sg25
I2
sg26
I2
sg27
I3
sg28
I3
sg29
I2
sg30
I3
sg31
I2
sg32
I2
sg33
I2
sg34
I2
sg35
I2
sg36
I2
sg37
I2
sg38
I2
sg39
I2
sg40
I3
sg41
I3
sg42
I2
sg43
I2
sg44
I2
sg45
I2
sg46
I2
sg47
I2
sg48
I2
sg49
I3
sg50
I2
sg51
I3
sg52
I2
sg53
I3
sg54
I2
sg55
I2
sg56
I2
sg57
I2
sg58
I2
sg59
I2
sg60
I2
sg61
I2
sg62
I2
sg63
I2
sg64
I3
sg65
I2
sg66
I2
sg67
I2
sg68
I3
sg69
I3
sg70
I2
sg71
I2
sg72
I2
sg73
I2
sg74
I2
sg75
I2
sg76
I2
ssg18
(dp92
g1
I2
sg3
I2
sg4
I1
sg5
I2
sg6
I2
sg7
I1
sg8
I2
sg9
I2
sg10
I2
sg11
I2
sg12
I2
sg13
I1
sg14
I2
sg15
I2
sg16
I2
sg17
I2
sg18
I2
sg19
I2
sg20
I2
sg21
I2
sg22
I2
sg23
I1
sg24
I2
sg25
I2
sg26
I2
sg27
I2
sg28
I2
sg29
I1
sg30
I2
sg31
I2
sg32
I1
sg33
I1
sg34
I2
sg35
I1
sg36
I2
sg37
I1
sg38
I2
sg39
I2
sg40
I2
sg41
I2
sg42
I2
sg43
I2
sg44
I1
sg45
I1
sg46
I1
sg47
I1
sg48
I2
sg49
I2
sg50
I1
sg51
I2
sg52
I2
sg53
I2
sg54
I2
sg55
I2
sg56
I2
sg57
I2
sg58
I1
sg59
I2
sg60
I2
sg61
I1
sg62
I2
sg63
I2
sg64
I2
sg65
I1
sg66
I1
sg67
I1
sg68
I2
sg69
I2
sg70
I2
sg71
I1
sg72
I2
sg73
I1
sg74
I1
sg75
I1
sg76
I1
ssg19
(dp93
g1
I2
sg3
I2
sg4
I1
sg5
I2
sg6
I2
sg7
I1
sg8
I2
sg9
I2
sg10
I2
sg11
I2
sg12
I2
sg13
I1
sg14
I2
sg15
I2
sg16
I2
sg17
I2
sg18
I2
sg19
I2
sg20
I2
sg21
I2
sg22
I2
sg23
I1
sg24
I2
sg25
I2
sg26
I2
sg27
I2
sg28
I2
sg29
I1
sg30
I2
sg31
I2
sg32
I1
sg33
I1
sg34
I2
sg35
I1
sg36
I2
sg37
I1
sg38
I2
sg39
I2
sg40
I2
sg41
I2
sg42
I2
sg43
I2
sg44
I1
sg45
I1
sg46
I1
sg47
I1
sg48
I2
sg49
I2
sg50
I1
sg51
I2
sg52
I2
sg53
I2
sg54
I2
sg55
I2
sg56
I2
sg57
I2
sg58
I1
sg59
I2
sg60
I2
sg61
I1
sg62
I2
sg63
I2
sg64
I2
sg65
I1
sg66
I1
sg67
I1
sg68
I2
sg69
I2
sg70
I2
sg71
I1
sg72
I2
sg73
I1
sg74
I1
sg75
I1
sg76
I1
ssg20
(dp94
g1
I2
sg3
I2
sg4
I1
sg5
I2
sg6
I2
sg7
I1
sg8
I2
sg9
I2
sg10
I2
sg11
I2
sg12
I2
sg13
I1
sg14
I2
sg15
I2
sg16
I2
sg17
I2
sg18
I2
sg19
I2
sg20
I2
sg21
I2
sg22
I2
sg23
I1
sg24
I2
sg25
I2
sg26
I2
sg27
I2
sg28
I2
sg29
I1
sg30
I2
sg31
I2
sg32
I1
sg33
I1
sg34
I2
sg35
I1
sg36
I2
sg37
I1
sg38
I2
sg39
I2
sg40
I2
sg41
I2
sg42
I2
sg43
I2
sg44
I1
sg45
I1
sg46
I1
sg47
I1
sg48
I2
sg49
I2
sg50
I1
sg51
I2
sg52
I2
sg53
I2
sg54
I2
sg55
I2
sg56
I2
sg57
I2
sg58
I1
sg59
I2
sg60
I2
sg61
I1
sg62
I2
sg63
I2
sg64
I2
sg65
I1
sg66
I1
sg67
I1
sg68
I2
sg69
I2
sg70
I2
sg71
I1
sg72
I2
sg73
I1
sg74
I1
sg75
I1
sg76
I1
ssg21
(dp95
g1
I2
sg3
I3
sg4
I2
sg5
I2
sg6
I2
sg7
I2
sg8
I3
sg9
I2
sg10
I2
sg11
I3
sg12
I3
sg13
I2
sg14
I2
sg15
I3
sg16
I2
sg17
I3
sg18
I2
sg19
I2
sg20
I2
sg21
I3
sg22
I2
sg23
I2
sg24
I2
sg25
I2
sg26
I2
sg27
I3
sg28
I3
sg29
I2
sg30
I3
sg31
I2
sg32
I2
sg33
I2
sg34
I2
sg35
I2
sg36
I2
sg37
I2
sg38
I2
sg39
I2
sg40
I3
sg41
I3
sg42
I2
sg43
I2
sg44
I2
sg45
I2
sg46
I2
sg47
I2
sg48
I2
sg49
I3
sg50
I2
sg51
I3
sg52
I2
sg53
I3
sg54
I2
sg55
I2
sg56
I2
sg57
I2
sg58
I2
sg59
I2
sg60
I2
sg61
I2
sg62
I2
sg63
I2
sg64
I3
sg65
I2
sg66
I2
sg67
I2
sg68
I3
sg69
I3
sg70
I2
sg71
I2
sg72
I2
sg73
I2
sg74
I2
sg75
I2
sg76
I2
ssg22
(dp96
g1
I2
sg3
I2
sg4
I1
sg5
I2
sg6
I2
sg7
I1
sg8
I2
sg9
I2
sg10
I2
sg11
I2
sg12
I2
sg13
I1
sg14
I2
sg15
I2
sg16
I2
sg17
I2
sg18
I2
sg19
I2
sg20
I2
sg21
I2
sg22
I2
sg23
I1
sg24
I2
sg25
I2
sg26
I2
sg27
I2
sg28
I2
sg29
I1
sg30
I2
sg31
I2
sg32
I1
sg33
I1
sg34
I2
sg35
I1
sg36
I2
sg37
I1
sg38
I2
sg39
I2
sg40
I2
sg41
I2
sg42
I2
sg43
I2
sg44
I1
sg45
I1
sg46
I1
sg47
I1
sg48
I2
sg49
I2
sg50
I1
sg51
I2
sg52
I2
sg53
I2
sg54
I2
sg55
I2
sg56
I2
sg57
I2
sg58
I1
sg59
I2
sg60
I2
sg61
I1
sg62
I2
sg63
I2
sg64
I2
sg65
I1
sg66
I1
sg67
I1
sg68
I2
sg69
I2
sg70
I2
sg71
I1
sg72
I2
sg73
I1
sg74
I1
sg75
I1
sg76
I1
ssg23
(dp97
g1
I1
sg3
I2
sg4
I2
sg5
I1
sg6
I1
sg7
I2
sg8
I2
sg9
I1
sg10
I1
sg11
I2
sg12
I2
sg13
I2
sg14
I1
sg15
I2
sg16
I1
sg17
I2
sg18
I1
sg19
I1
sg20
I1
sg21
I2
sg22
I1
sg23
I2
sg24
I1
sg25
I1
sg26
I1
sg27
I2
sg28
I2
sg29
I2
sg30
I2
sg31
I1
sg32
I2
sg33
I2
sg34
I1
sg35
I2
sg36
I1
sg37
I2
sg38
I1
sg39
I1
sg40
I2
sg41
I2
sg42
I1
sg43
I1
sg44
I2
sg45
I2
sg46
I2
sg47
I2
sg48
I1
sg49
I2
sg50
I2
sg51
I2
sg52
I1
sg53
I2
sg54
I1
sg55
I1
sg56
I1
sg57
I1
sg58
I2
sg59
I1
sg60
I1
sg61
I2
sg62
I1
sg63
I1
sg64
I2
sg65
I2
sg66
I2
sg67
I2
sg68
I2
sg69
I2
sg70
I1
sg71
I2
sg72
I1
sg73
I2
sg74
I2
sg75
I2
sg76
I2
ssg24
(dp98
g1
I2
sg3
I2
sg4
I1
sg5
I2
sg6
I2
sg7
I1
sg8
I2
sg9
I2
sg10
I2
sg11
I2
sg12
I2
sg13
I1
sg14
I2
sg15
I2
sg16
I2
sg17
I2
sg18
I2
sg19
I2
sg20
I2
sg21
I2
sg22
I2
sg23
I1
sg24
I2
sg25
I2
sg26
I2
sg27
I2
sg28
I2
sg29
I1
sg30
I2
sg31
I2
sg32
I1
sg33
I1
sg34
I2
sg35
I1
sg36
I2
sg37
I1
sg38
I2
sg39
I2
sg40
I2
sg41
I2
sg42
I2
sg43
I2
sg44
I1
sg45
I1
sg46
I1
sg47
I1
sg48
I2
sg49
I2
sg50
I1
sg51
I2
sg52
I2
sg53
I2
sg54
I2
sg55
I2
sg56
I2
sg57
I2
sg58
I1
sg59
I2
sg60
I2
sg61
I1
sg62
I2
sg63
I2
sg64
I2
sg65
I1
sg66
I1
sg67
I1
sg68
I2
sg69
I2
sg70
I2
sg71
I1
sg72
I2
sg73
I1
sg74
I1
sg75
I1
sg76
I1
ssg25
(dp99
g1
I2
sg3
I2
sg4
I1
sg5
I2
sg6
I2
sg7
I1
sg8
I2
sg9
I2
sg10
I2
sg11
I2
sg12
I2
sg13
I1
sg14
I2
sg15
I2
sg16
I2
sg17
I2
sg18
I2
sg19
I2
sg20
I2
sg21
I2
sg22
I2
sg23
I1
sg24
I2
sg25
I2
sg26
I2
sg27
I2
sg28
I2
sg29
I1
sg30
I2
sg31
I2
sg32
I1
sg33
I1
sg34
I2
sg35
I1
sg36
I2
sg37
I1
sg38
I2
sg39
I2
sg40
I2
sg41
I2
sg42
I2
sg43
I2
sg44
I1
sg45
I1
sg46
I1
sg47
I1
sg48
I2
sg49
I2
sg50
I1
sg51
I2
sg52
I2
sg53
I2
sg54
I2
sg55
I2
sg56
I2
sg57
I2
sg58
I1
sg59
I2
sg60
I2
sg61
I1
sg62
I2
sg63
I2
sg64
I2
sg65
I1
sg66
I1
sg67
I1
sg68
I2
sg69
I2
sg70
I2
sg71
I1
sg72
I2
sg73
I1
sg74
I1
sg75
I1
sg76
I1
ssg26
(dp100
g1
I2
sg3
I2
sg4
I1
sg5
I2
sg6
I2
sg7
I1
sg8
I2
sg9
I2
sg10
I2
sg11
I2
sg12
I2
sg13
I1
sg14
I2
sg15
I2
sg16
I2
sg17
I2
sg18
I2
sg19
I2
sg20
I2
sg21
I2
sg22
I2
sg23
I1
sg24
I2
sg25
I2
sg26
I2
sg27
I2
sg28
I2
sg29
I1
sg30
I2
sg31
I2
sg32
I1
sg33
I1
sg34
I2
sg35
I1
sg36
I2
sg37
I1
sg38
I2
sg39
I2
sg40
I2
sg41
I2
sg42
I2
sg43
I2
sg44
I1
sg45
I1
sg46
I1
sg47
I1
sg48
I2
sg49
I2
sg50
I1
sg51
I2
sg52
I2
sg53
I2
sg54
I2
sg55
I2
sg56
I2
sg57
I2
sg58
I1
sg59
I2
sg60
I2
sg61
I1
sg62
I2
sg63
I2
sg64
I2
sg65
I1
sg66
I1
sg67
I1
sg68
I2
sg69
I2
sg70
I2
sg71
I1
sg72
I2
sg73
I1
sg74
I1
sg75
I1
sg76
I1
ssg27
(dp101
g1
I2
sg3
I3
sg4
I2
sg5
I2
sg6
I2
sg7
I2
sg8
I3
sg9
I2
sg10
I2
sg11
I3
sg12
I3
sg13
I2
sg14
I2
sg15
I3
sg16
I2
sg17
I3
sg18
I2
sg19
I2
sg20
I2
sg21
I3
sg22
I2
sg23
I2
sg24
I2
sg25
I2
sg26
I2
sg27
I3
sg28
I3
sg29
I2
sg30
I3
sg31
I2
sg32
I2
sg33
I2
sg34
I2
sg35
I2
sg36
I2
sg37
I2
sg38
I2
sg39
I2
sg40
I3
sg41
I3
sg42
I2
sg43
I2
sg44
I2
sg45
I2
sg46
I2
sg47
I2
sg48
I2
sg49
I3
sg50
I2
sg51
I3
sg52
I2
sg53
I3
sg54
I2
sg55
I2
sg56
I2
sg57
I2
sg58
I2
sg59
I2
sg60
I2
sg61
I2
sg62
I2
sg63
I2
sg64
I3
sg65
I2
sg66
I2
sg67
I2
sg68
I3
sg69
I3
sg70
I2
sg71
I2
sg72
I2
sg73
I2
sg74
I2
sg75
I2
sg76
I2
ssg28
(dp102
g1
I2
sg3
I3
sg4
I2
sg5
I2
sg6
I2
sg7
I2
sg8
I3
sg9
I2
sg10
I2
sg11
I3
sg12
I3
sg13
I2
sg14
I2
sg15
I3
sg16
I2
sg17
I3
sg18
I2
sg19
I2
sg20
I2
sg21
I3
sg22
I2
sg23
I2
sg24
I2
sg25
I2
sg26
I2
sg27
I3
sg28
I3
sg29
I2
sg30
I3
sg31
I2
sg32
I2
sg33
I2
sg34
I2
sg35
I2
sg36
I2
sg37
I2
sg38
I2
sg39
I2
sg40
I3
sg41
I3
sg42
I2
sg43
I2
sg44
I2
sg45
I2
sg46
I2
sg47
I2
sg48
I2
sg49
I3
sg50
I2
sg51
I3
sg52
I2
sg53
I3
sg54
I2
sg55
I2
sg56
I2
sg57
I2
sg58
I2
sg59
I2
sg60
I2
sg61
I2
sg62
I2
sg63
I2
sg64
I3
sg65
I2
sg66
I2
sg67
I2
sg68
I3
sg69
I3
sg70
I2
sg71
I2
sg72
I2
sg73
I2
sg74
I2
sg75
I2
sg76
I2
ssg29
(dp103
g1
I1
sg3
I2
sg4
I2
sg5
I1
sg6
I1
sg7
I2
sg8
I2
sg9
I1
sg10
I1
sg11
I2
sg12
I2
sg13
I2
sg14
I1
sg15
I2
sg16
I1
sg17
I2
sg18
I1
sg19
I1
sg20
I1
sg21
I2
sg22
I1
sg23
I2
sg24
I1
sg25
I1
sg26
I1
sg27
I2
sg28
I2
sg29
I2
sg30
I2
sg31
I1
sg32
I2
sg33
I2
sg34
I1
sg35
I2
sg36
I1
sg37
I2
sg38
I1
sg39
I1
sg40
I2
sg41
I2
sg42
I1
sg43
I1
sg44
I2
sg45
I2
sg46
I2
sg47
I2
sg48
I1
sg49
I2
sg50
I2
sg51
I2
sg52
I1
sg53
I2
sg54
I1
sg55
I1
sg56
I1
sg57
I1
sg58
I2
sg59
I1
sg60
I1
sg61
I2
sg62
I1
sg63
I1
sg64
I2
sg65
I2
sg66
I2
sg67
I2
sg68
I2
sg69
I2
sg70
I1
sg71
I2
sg72
I1
sg73
I2
sg74
I2
sg75
I2
sg76
I2
ssg30
(dp104
g1
I2
sg3
I3
sg4
I2
sg5
I2
sg6
I2
sg7
I2
sg8
I3
sg9
I2
sg10
I2
sg11
I3
sg12
I3
sg13
I2
sg14
I2
sg15
I3
sg16
I2
sg17
I3
sg18
I2
sg19
I2
sg20
I2
sg21
I3
sg22
I2
sg23
I2
sg24
I2
sg25
I2
sg26
I2
sg27
I3
sg28
I3
sg29
I2
sg30
I3
sg31
I2
sg32
I2
sg33
I2
sg34
I2
sg35
I2
sg36
I2
sg37
I2
sg38
I2
sg39
I2
sg40
I3
sg41
I3
sg42
I2
sg43
I2
sg44
I2
sg45
I2
sg46
I2
sg47
I2
sg48
I2
sg49
I3
sg50
I2
sg51
I3
sg52
I2
sg53
I3
sg54
I2
sg55
I2
sg56
I2
sg57
I2
sg58
I2
sg59
I2
sg60
I2
sg61
I2
sg62
I2
sg63
I2
sg64
I3
sg65
I2
sg66
I2
sg67
I2
sg68
I3
sg69
I3
sg70
I2
sg71
I2
sg72
I2
sg73
I2
sg74
I2
sg75
I2
sg76
I2
ssg31
(dp105
g1
I2
sg3
I2
sg4
I1
sg5
I2
sg6
I2
sg7
I1
sg8
I2
sg9
I2
sg10
I2
sg11
I2
sg12
I2
sg13
I1
sg14
I2
sg15
I2
sg16
I2
sg17
I2
sg18
I2
sg19
I2
sg20
I2
sg21
I2
sg22
I2
sg23
I1
sg24
I2
sg25
I2
sg26
I2
sg27
I2
sg28
I2
sg29
I1
sg30
I2
sg31
I2
sg32
I1
sg33
I1
sg34
I2
sg35
I1
sg36
I2
sg37
I1
sg38
I2
sg39
I2
sg40
I2
sg41
I2
sg42
I2
sg43
I2
sg44
I1
sg45
I1
sg46
I1
sg47
I1
sg48
I2
sg49
I2
sg50
I1
sg51
I2
sg52
I2
sg53
I2
sg54
I2
sg55
I2
sg56
I2
sg57
I2
sg58
I1
sg59
I2
sg60
I2
sg61
I1
sg62
I2
sg63
I2
sg64
I2
sg65
I1
sg66
I1
sg67
I1
sg68
I2
sg69
I2
sg70
I2
sg71
I1
sg72
I2
sg73
I1
sg74
I1
sg75
I1
sg76
I1
ssg32
(dp106
g1
I1
sg3
I2
sg4
I2
sg5
I1
sg6
I1
sg7
I2
sg8
I2
sg9
I1
sg10
I1
sg11
I2
sg12
I2
sg13
I2
sg14
I1
sg15
I2
sg16
I1
sg17
I2
sg18
I1
sg19
I1
sg20
I1
sg21
I2
sg22
I1
sg23
I2
sg24
I1
sg25
I1
sg26
I1
sg27
I2
sg28
I2
sg29
I2
sg30
I2
sg31
I1
sg32
I2
sg33
I2
sg34
I1
sg35
I2
sg36
I1
sg37
I2
sg38
I1
sg39
I1
sg40
I2
sg41
I2
sg42
I1
sg43
I1
sg44
I2
sg45
I2
sg46
I2
sg47
I2
sg48
I1
sg49
I2
sg50
I2
sg51
I2
sg52
I1
sg53
I2
sg54
I1
sg55
I1
sg56
I1
sg57
I1
sg58
I2
sg59
I1
sg60
I1
sg61
I2
sg62
I1
sg63
I1
sg64
I2
sg65
I2
sg66
I2
sg67
I2
sg68
I2
sg69
I2
sg70
I1
sg71
I2
sg72
I1
sg73
I2
sg74
I2
sg75
I2
sg76
I2
ssg33
(dp107
g1
I1
sg3
I2
sg4
I2
sg5
I1
sg6
I1
sg7
I2
sg8
I2
sg9
I1
sg10
I1
sg11
I2
sg12
I2
sg13
I2
sg14
I1
sg15
I2
sg16
I1
sg17
I2
sg18
I1
sg19
I1
sg20
I1
sg21
I2
sg22
I1
sg23
I2
sg24
I1
sg25
I1
sg26
I1
sg27
I2
sg28
I2
sg29
I2
sg30
I2
sg31
I1
sg32
I2
sg33
I2
sg34
I1
sg35
I2
sg36
I1
sg37
I2
sg38
I1
sg39
I1
sg40
I2
sg41
I2
sg42
I1
sg43
I1
sg44
I2
sg45
I2
sg46
I2
sg47
I2
sg48
I1
sg49
I2
sg50
I2
sg51
I2
sg52
I1
sg53
I2
sg54
I1
sg55
I1
sg56
I1
sg57
I1
sg58
I2
sg59
I1
sg60
I1
sg61
I2
sg62
I1
sg63
I1
sg64
I2
sg65
I2
sg66
I2
sg67
I2
sg68
I2
sg69
I2
sg70
I1
sg71
I2
sg72
I1
sg73
I2
sg74
I2
sg75
I2
sg76
I2
ssg34
(dp108
g1
I2
sg3
I2
sg4
I1
sg5
I2
sg6
I2
sg7
I1
sg8
I2
sg9
I2
sg10
I2
sg11
I2
sg12
I2
sg13
I1
sg14
I2
sg15
I2
sg16
I2
sg17
I2
sg18
I2
sg19
I2
sg20
I2
sg21
I2
sg22
I2
sg23
I1
sg24
I2
sg25
I2
sg26
I2
sg27
I2
sg28
I2
sg29
I1
sg30
I2
sg31
I2
sg32
I1
sg33
I1
sg34
I2
sg35
I1
sg36
I2
sg37
I1
sg38
I2
sg39
I2
sg40
I2
sg41
I2
sg42
I2
sg43
I2
sg44
I1
sg45
I1
sg46
I1
sg47
I1
sg48
I2
sg49
I2
sg50
I1
sg51
I2
sg52
I2
sg53
I2
sg54
I2
sg55
I2
sg56
I2
sg57
I2
sg58
I1
sg59
I2
sg60
I2
sg61
I1
sg62
I2
sg63
I2
sg64
I2
sg65
I1
sg66
I1
sg67
I1
sg68
I2
sg69
I2
sg70
I2
sg71
I1
sg72
I2
sg73
I1
sg74
I1
sg75
I1
sg76
I1
ssg35
(dp109
g1
I1
sg3
I2
sg4
I2
sg5
I1
sg6
I1
sg7
I2
sg8
I2
sg9
I1
sg10
I1
sg11
I2
sg12
I2
sg13
I2
sg14
I1
sg15
I2
sg16
I1
sg17
I2
sg18
I1
sg19
I1
sg20
I1
sg21
I2
sg22
I1
sg23
I2
sg24
I1
sg25
I1
sg26
I1
sg27
I2
sg28
I2
sg29
I2
sg30
I2
sg31
I1
sg32
I2
sg33
I2
sg34
I1
sg35
I2
sg36
I1
sg37
I2
sg38
I1
sg39
I1
sg40
I2
sg41
I2
sg42
I1
sg43
I1
sg44
I2
sg45
I2
sg46
I2
sg47
I2
sg48
I1
sg49
I2
sg50
I2
sg51
I2
sg52
I1
sg53
I2
sg54
I1
sg55
I1
sg56
I1
sg57
I1
sg58
I2
sg59
I1
sg60
I1
sg61
I2
sg62
I1
sg63
I1
sg64
I2
sg65
I2
sg66
I2
sg67
I2
sg68
I2
sg69
I2
sg70
I1
sg71
I2
sg72
I1
sg73
I2
sg74
I2
sg75
I2
sg76
I2
ssg36
(dp110
g1
I2
sg3
I2
sg4
I1
sg5
I2
sg6
I2
sg7
I1
sg8
I2
sg9
I2
sg10
I2
sg11
I2
sg12
I2
sg13
I1
sg14
I2
sg15
I2
sg16
I2
sg17
I2
sg18
I2
sg19
I2
sg20
I2
sg21
I2
sg22
I2
sg23
I1
sg24
I2
sg25
I2
sg26
I2
sg27
I2
sg28
I2
sg29
I1
sg30
I2
sg31
I2
sg32
I1
sg33
I1
sg34
I2
sg35
I1
sg36
I2
sg37
I1
sg38
I2
sg39
I2
sg40
I2
sg41
I2
sg42
I2
sg43
I2
sg44
I1
sg45
I1
sg46
I1
sg47
I1
sg48
I2
sg49
I2
sg50
I1
sg51
I2
sg52
I2
sg53
I2
sg54
I2
sg55
I2
sg56
I2
sg57
I2
sg58
I1
sg59
I2
sg60
I2
sg61
I1
sg62
I2
sg63
I2
sg64
I2
sg65
I1
sg66
I1
sg67
I1
sg68
I2
sg69
I2
sg70
I2
sg71
I1
sg72
I2
sg73
I1
sg74
I1
sg75
I1
sg76
I1
ssg37
(dp111
g1
I1
sg3
I2
sg4
I2
sg5
I1
sg6
I1
sg7
I2
sg8
I2
sg9
I1
sg10
I1
sg11
I2
sg12
I2
sg13
I2
sg14
I1
sg15
I2
sg16
I1
sg17
I2
sg18
I1
sg19
I1
sg20
I1
sg21
I2
sg22
I1
sg23
I2
sg24
I1
sg25
I1
sg26
I1
sg27
I2
sg28
I2
sg29
I2
sg30
I2
sg31
I1
sg32
I2
sg33
I2
sg34
I1
sg35
I2
sg36
I1
sg37
I2
sg38
I1
sg39
I1
sg40
I2
sg41
I2
sg42
I1
sg43
I1
sg44
I2
sg45
I2
sg46
I2
sg47
I2
sg48
I1
sg49
I2
sg50
I2
sg51
I2
sg52
I1
sg53
I2
sg54
I1
sg55
I1
sg56
I1
sg57
I1
sg58
I2
sg59
I1
sg60
I1
sg61
I2
sg62
I1
sg63
I1
sg64
I2
sg65
I2
sg66
I2
sg67
I2
sg68
I2
sg69
I2
sg70
I1
sg71
I2
sg72
I1
sg73
I2
sg74
I2
sg75
I2
sg76
I2
ssg38
(dp112
g1
I2
sg3
I2
sg4
I1
sg5
I2
sg6
I2
sg7
I1
sg8
I2
sg9
I2
sg10
I2
sg11
I2
sg12
I2
sg13
I1
sg14
I2
sg15
I2
sg16
I2
sg17
I2
sg18
I2
sg19
I2
sg20
I2
sg21
I2
sg22
I2
sg23
I1
sg24
I2
sg25
I2
sg26
I2
sg27
I2
sg28
I2
sg29
I1
sg30
I2
sg31
I2
sg32
I1
sg33
I1
sg34
I2
sg35
I1
sg36
I2
sg37
I1
sg38
I2
sg39
I2
sg40
I2
sg41
I2
sg42
I2
sg43
I2
sg44
I1
sg45
I1
sg46
I1
sg47
I1
sg48
I2
sg49
I2
sg50
I1
sg51
I2
sg52
I2
sg53
I2
sg54
I2
sg55
I2
sg56
I2
sg57
I2
sg58
I1
sg59
I2
sg60
I2
sg61
I1
sg62
I2
sg63
I2
sg64
I2
sg65
I1
sg66
I1
sg67
I1
sg68
I2
sg69
I2
sg70
I2
sg71
I1
sg72
I2
sg73
I1
sg74
I1
sg75
I1
sg76
I1
ssg39
(dp113
g1
I2
sg3
I2
sg4
I1
sg5
I2
sg6
I2
sg7
I1
sg8
I2
sg9
I2
sg10
I2
sg11
I2
sg12
I2
sg13
I1
sg14
I2
sg15
I2
sg16
I2
sg17
I2
sg18
I2
sg19
I2
sg20
I2
sg21
I2
sg22
I2
sg23
I1
sg24
I2
sg25
I2
sg26
I2
sg27
I2
sg28
I2
sg29
I1
sg30
I2
sg31
I2
sg32
I1
sg33
I1
sg34
I2
sg35
I1
sg36
I2
sg37
I1
sg38
I2
sg39
I2
sg40
I2
sg41
I2
sg42
I2
sg43
I2
sg44
I1
sg45
I1
sg46
I1
sg47
I1
sg48
I2
sg49
I2
sg50
I1
sg51
I2
sg52
I2
sg53
I2
sg54
I2
sg55
I2
sg56
I2
sg57
I2
sg58
I1
sg59
I2
sg60
I2
sg61
I1
sg62
I2
sg63
I2
sg64
I2
sg65
I1
sg66
I1
sg67
I1
sg68
I2
sg69
I2
sg70
I2
sg71
I1
sg72
I2
sg73
I1
sg74
I1
sg75
I1
sg76
I1
ssg40
(dp114
g1
I2
sg3
I3
sg4
I2
sg5
I2
sg6
I2
sg7
I2
sg8
I3
sg9
I2
sg10
I2
sg11
I3
sg12
I3
sg13
I2
sg14
I2
sg15
I3
sg16
I2
sg17
I3
sg18
I2
sg19
I2
sg20
I2
sg21
I3
sg22
I2
sg23
I2
sg24
I2
sg25
I2
sg26
I2
sg27
I3
sg28
I3
sg29
I2
sg30
I3
sg31
I2
sg32
I2
sg33
I2
sg34
I2
sg35
I2
sg36
I2
sg37
I2
sg38
I2
sg39
I2
sg40
I3
sg41
I3
sg42
I2
sg43
I2
sg44
I2
sg45
I2
sg46
I2
sg47
I2
sg48
I2
sg49
I3
sg50
I2
sg51
I3
sg52
I2
sg53
I3
sg54
I2
sg55
I2
sg56
I2
sg57
I2
sg58
I2
sg59
I2
sg60
I2
sg61
I2
sg62
I2
sg63
I2
sg64
I3
sg65
I2
sg66
I2
sg67
I2
sg68
I3
sg69
I3
sg70
I2
sg71
I2
sg72
I2
sg73
I2
sg74
I2
sg75
I2
sg76
I2
ssg41
(dp115
g1
I2
sg3
I3
sg4
I2
sg5
I2
sg6
I2
sg7
I2
sg8
I3
sg9
I2
sg10
I2
sg11
I3
sg12
I3
sg13
I2
sg14
I2
sg15
I3
sg16
I2
sg17
I3
sg18
I2
sg19
I2
sg20
I2
sg21
I3
sg22
I2
sg23
I2
sg24
I2
sg25
I2
sg26
I2
sg27
I3
sg28
I3
sg29
I2
sg30
I3
sg31
I2
sg32
I2
sg33
I2
sg34
I2
sg35
I2
sg36
I2
sg37
I2
sg38
I2
sg39
I2
sg40
I3
sg41
I3
sg42
I2
sg43
I2
sg44
I2
sg45
I2
sg46
I2
sg47
I2
sg48
I2
sg49
I3
sg50
I2
sg51
I3
sg52
I2
sg53
I3
sg54
I2
sg55
I2
sg56
I2
sg57
I2
sg58
I2
sg59
I2
sg60
I2
sg61
I2
sg62
I2
sg63
I2
sg64
I3
sg65
I2
sg66
I2
sg67
I2
sg68
I3
sg69
I3
sg70
I2
sg71
I2
sg72
I2
sg73
I2
sg74
I2
sg75
I2
sg76
I2
ssg42
(dp116
g1
I2
sg3
I2
sg4
I1
sg5
I2
sg6
I2
sg7
I1
sg8
I2
sg9
I2
sg10
I2
sg11
I2
sg12
I2
sg13
I1
sg14
I2
sg15
I2
sg16
I2
sg17
I2
sg18
I2
sg19
I2
sg20
I2
sg21
I2
sg22
I2
sg23
I1
sg24
I2
sg25
I2
sg26
I2
sg27
I2
sg28
I2
sg29
I1
sg30
I2
sg31
I2
sg32
I1
sg33
I1
sg34
I2
sg35
I1
sg36
I2
sg37
I1
sg38
I2
sg39
I2
sg40
I2
sg41
I2
sg42
I2
sg43
I2
sg44
I1
sg45
I1
sg46
I1
sg47
I1
sg48
I2
sg49
I2
sg50
I1
sg51
I2
sg52
I2
sg53
I2
sg54
I2
sg55
I2
sg56
I2
sg57
I2
sg58
I1
sg59
I2
sg60
I2
sg61
I1
sg62
I2
sg63
I2
sg64
I2
sg65
I1
sg66
I1
sg67
I1
sg68
I2
sg69
I2
sg70
I2
sg71
I1
sg72
I2
sg73
I1
sg74
I1
sg75
I1
sg76
I1
ssg43
(dp117
g1
I2
sg3
I2
sg4
I1
sg5
I2
sg6
I2
sg7
I1
sg8
I2
sg9
I2
sg10
I2
sg11
I2
sg12
I2
sg13
I1
sg14
I2
sg15
I2
sg16
I2
sg17
I2
sg18
I2
sg19
I2
sg20
I2
sg21
I2
sg22
I2
sg23
I1
sg24
I2
sg25
I2
sg26
I2
sg27
I2
sg28
I2
sg29
I1
sg30
I2
sg31
I2
sg32
I1
sg33
I1
sg34
I2
sg35
I1
sg36
I2
sg37
I1
sg38
I2
sg39
I2
sg40
I2
sg41
I2
sg42
I2
sg43
I2
sg44
I1
sg45
I1
sg46
I1
sg47
I1
sg48
I2
sg49
I2
sg50
I1
sg51
I2
sg52
I2
sg53
I2
sg54
I2
sg55
I2
sg56
I2
sg57
I2
sg58
I1
sg59
I2
sg60
I2
sg61
I1
sg62
I2
sg63
I2
sg64
I2
sg65
I1
sg66
I1
sg67
I1
sg68
I2
sg69
I2
sg70
I2
sg71
I1
sg72
I2
sg73
I1
sg74
I1
sg75
I1
sg76
I1
ssg44
(dp118
g1
I1
sg3
I2
sg4
I2
sg5
I1
sg6
I1
sg7
I2
sg8
I2
sg9
I1
sg10
I1
sg11
I2
sg12
I2
sg13
I2
sg14
I1
sg15
I2
sg16
I1
sg17
I2
sg18
I1
sg19
I1
sg20
I1
sg21
I2
sg22
I1
sg23
I2
sg24
I1
sg25
I1
sg26
I1
sg27
I2
sg28
I2
sg29
I2
sg30
I2
sg31
I1
sg32
I2
sg33
I2
sg34
I1
sg35
I2
sg36
I1
sg37
I2
sg38
I1
sg39
I1
sg40
I2
sg41
I2
sg42
I1
sg43
I1
sg44
I2
sg45
I2
sg46
I2
sg47
I2
sg48
I1
sg49
I2
sg50
I2
sg51
I2
sg52
I1
sg53
I2
sg54
I1
sg55
I1
sg56
I1
sg57
I1
sg58
I2
sg59
I1
sg60
I1
sg61
I2
sg62
I1
sg63
I1
sg64
I2
sg65
I2
sg66
I2
sg67
I2
sg68
I2
sg69
I2
sg70
I1
sg71
I2
sg72
I1
sg73
I2
sg74
I2
sg75
I2
sg76
I2
ssg45
(dp119
g1
I1
sg3
I2
sg4
I2
sg5
I1
sg6
I1
sg7
I2
sg8
I2
sg9
I1
sg10
I1
sg11
I2
sg12
I2
sg13
I2
sg14
I1
sg15
I2
sg16
I1
sg17
I2
sg18
I1
sg19
I1
sg20
I1
sg21
I2
sg22
I1
sg23
I2
sg24
I1
sg25
I1
sg26
I1
sg27
I2
sg28
I2
sg29
I2
sg30
I2
sg31
I1
sg32
I2
sg33
I2
sg34
I1
sg35
I2
sg36
I1
sg37
I2
sg38
I1
sg39
I1
sg40
I2
sg41
I2
sg42
I1
sg43
I1
sg44
I2
sg45
I2
sg46
I2
sg47
I2
sg48
I1
sg49
I2
sg50
I2
sg51
I2
sg52
I1
sg53
I2
sg54
I1
sg55
I1
sg56
I1
sg57
I1
sg58
I2
sg59
I1
sg60
I1
sg61
I2
sg62
I1
sg63
I1
sg64
I2
sg65
I2
sg66
I2
sg67
I2
sg68
I2
sg69
I2
sg70
I1
sg71
I2
sg72
I1
sg73
I2
sg74
I2
sg75
I2
sg76
I2
ssg46
(dp120
g1
I1
sg3
I2
sg4
I2
sg5
I1
sg6
I1
sg7
I2
sg8
I2
sg9
I1
sg10
I1
sg11
I2
sg12
I2
sg13
I2
sg14
I1
sg15
I2
sg16
I1
sg17
I2
sg18
I1
sg19
I1
sg20
I1
sg21
I2
sg22
I1
sg23
I2
sg24
I1
sg25
I1
sg26
I1
sg27
I2
sg28
I2
sg29
I2
sg30
I2
sg31
I1
sg32
I2
sg33
I2
sg34
I1
sg35
I2
sg36
I1
sg37
I2
sg38
I1
sg39
I1
sg40
I2
sg41
I2
sg42
I1
sg43
I1
sg44
I2
sg45
I2
sg46
I2
sg47
I2
sg48
I1
sg49
I2
sg50
I2
sg51
I2
sg52
I1
sg53
I2
sg54
I1
sg55
I1
sg56
I1
sg57
I1
sg58
I2
sg59
I1
sg60
I1
sg61
I2
sg62
I1
sg63
I1
sg64
I2
sg65
I2
sg66
I2
sg67
I2
sg68
I2
sg69
I2
sg70
I1
sg71
I2
sg72
I1
sg73
I2
sg74
I2
sg75
I2
sg76
I2
ssg47
(dp121
g1
I1
sg3
I2
sg4
I2
sg5
I1
sg6
I1
sg7
I2
sg8
I2
sg9
I1
sg10
I1
sg11
I2
sg12
I2
sg13
I2
sg14
I1
sg15
I2
sg16
I1
sg17
I2
sg18
I1
sg19
I1
sg20
I1
sg21
I2
sg22
I1
sg23
I2
sg24
I1
sg25
I1
sg26
I1
sg27
I2
sg28
I2
sg29
I2
sg30
I2
sg31
I1
sg32
I2
sg33
I2
sg34
I1
sg35
I2
sg36
I1
sg37
I2
sg38
I1
sg39
I1
sg40
I2
sg41
I2
sg42
I1
sg43
I1
sg44
I2
sg45
I2
sg46
I2
sg47
I2
sg48
I1
sg49
I2
sg50
I2
sg51
I2
sg52
I1
sg53
I2
sg54
I1
sg55
I1
sg56
I1
sg57
I1
sg58
I2
sg59
I1
sg60
I1
sg61
I2
sg62
I1
sg63
I1
sg64
I2
sg65
I2
sg66
I2
sg67
I2
sg68
I2
sg69
I2
sg70
I1
sg71
I2
sg72
I1
sg73
I2
sg74
I2
sg75
I2
sg76
I2
ssg48
(dp122
g1
I2
sg3
I2
sg4
I1
sg5
I2
sg6
I2
sg7
I1
sg8
I2
sg9
I2
sg10
I2
sg11
I2
sg12
I2
sg13
I1
sg14
I2
sg15
I2
sg16
I2
sg17
I2
sg18
I2
sg19
I2
sg20
I2
sg21
I2
sg22
I2
sg23
I1
sg24
I2
sg25
I2
sg26
I2
sg27
I2
sg28
I2
sg29
I1
sg30
I2
sg31
I2
sg32
I1
sg33
I1
sg34
I2
sg35
I1
sg36
I2
sg37
I1
sg38
I2
sg39
I2
sg40
I2
sg41
I2
sg42
I2
sg43
I2
sg44
I1
sg45
I1
sg46
I1
sg47
I1
sg48
I2
sg49
I2
sg50
I1
sg51
I2
sg52
I2
sg53
I2
sg54
I2
sg55
I2
sg56
I2
sg57
I2
sg58
I1
sg59
I2
sg60
I2
sg61
I1
sg62
I2
sg63
I2
sg64
I2
sg65
I1
sg66
I1
sg67
I1
sg68
I2
sg69
I2
sg70
I2
sg71
I1
sg72
I2
sg73
I1
sg74
I1
sg75
I1
sg76
I1
ssg49
(dp123
g1
I2
sg3
I3
sg4
I2
sg5
I2
sg6
I2
sg7
I2
sg8
I3
sg9
I2
sg10
I2
sg11
I3
sg12
I3
sg13
I2
sg14
I2
sg15
I3
sg16
I2
sg17
I3
sg18
I2
sg19
I2
sg20
I2
sg21
I3
sg22
I2
sg23
I2
sg24
I2
sg25
I2
sg26
I2
sg27
I3
sg28
I3
sg29
I2
sg30
I3
sg31
I2
sg32
I2
sg33
I2
sg34
I2
sg35
I2
sg36
I2
sg37
I2
sg38
I2
sg39
I2
sg40
I3
sg41
I3
sg42
I2
sg43
I2
sg44
I2
sg45
I2
sg46
I2
sg47
I2
sg48
I2
sg49
I3
sg50
I2
sg51
I3
sg52
I2
sg53
I3
sg54
I2
sg55
I2
sg56
I2
sg57
I2
sg58
I2
sg59
I2
sg60
I2
sg61
I2
sg62
I2
sg63
I2
sg64
I3
sg65
I2
sg66
I2
sg67
I2
sg68
I3
sg69
I3
sg70
I2
sg71
I2
sg72
I2
sg73
I2
sg74
I2
sg75
I2
sg76
I2
ssg50
(dp124
g1
I1
sg3
I2
sg4
I2
sg5
I1
sg6
I1
sg7
I2
sg8
I2
sg9
I1
sg10
I1
sg11
I2
sg12
I2
sg13
I2
sg14
I1
sg15
I2
sg16
I1
sg17
I2
sg18
I1
sg19
I1
sg20
I1
sg21
I2
sg22
I1
sg23
I2
sg24
I1
sg25
I1
sg26
I1
sg27
I2
sg28
I2
sg29
I2
sg30
I2
sg31
I1
sg32
I2
sg33
I2
sg34
I1
sg35
I2
sg36
I1
sg37
I2
sg38
I1
sg39
I1
sg40
I2
sg41
I2
sg42
I1
sg43
I1
sg44
I2
sg45
I2
sg46
I2
sg47
I2
sg48
I1
sg49
I2
sg50
I2
sg51
I2
sg52
I1
sg53
I2
sg54
I1
sg55
I1
sg56
I1
sg57
I1
sg58
I2
sg59
I1
sg60
I1
sg61
I2
sg62
I1
sg63
I1
sg64
I2
sg65
I2
sg66
I2
sg67
I2
sg68
I2
sg69
I2
sg70
I1
sg71
I2
sg72
I1
sg73
I2
sg74
I2
sg75
I2
sg76
I2
ssg51
(dp125
g1
I2
sg3
I3
sg4
I2
sg5
I2
sg6
I2
sg7
I2
sg8
I3
sg9
I2
sg10
I2
sg11
I3
sg12
I3
sg13
I2
sg14
I2
sg15
I3
sg16
I2
sg17
I3
sg18
I2
sg19
I2
sg20
I2
sg21
I3
sg22
I2
sg23
I2
sg24
I2
sg25
I2
sg26
I2
sg27
I3
sg28
I3
sg29
I2
sg30
I3
sg31
I2
sg32
I2
sg33
I2
sg34
I2
sg35
I2
sg36
I2
sg37
I2
sg38
I2
sg39
I2
sg40
I3
sg41
I3
sg42
I2
sg43
I2
sg44
I2
sg45
I2
sg46
I2
sg47
I2
sg48
I2
sg49
I3
sg50
I2
sg51
I3
sg52
I2
sg53
I3
sg54
I2
sg55
I2
sg56
I2
sg57
I2
sg58
I2
sg59
I2
sg60
I2
sg61
I2
sg62
I2
sg63
I2
sg64
I3
sg65
I2
sg66
I2
sg67
I2
sg68
I3
sg69
I3
sg70
I2
sg71
I2
sg72
I2
sg73
I2
sg74
I2
sg75
I2
sg76
I2
ssg52
(dp126
g1
I2
sg3
I2
sg4
I1
sg5
I2
sg6
I2
sg7
I1
sg8
I2
sg9
I2
sg10
I2
sg11
I2
sg12
I2
sg13
I1
sg14
I2
sg15
I2
sg16
I2
sg17
I2
sg18
I2
sg19
I2
sg20
I2
sg21
I2
sg22
I2
sg23
I1
sg24
I2
sg25
I2
sg26
I2
sg27
I2
sg28
I2
sg29
I1
sg30
I2
sg31
I2
sg32
I1
sg33
I1
sg34
I2
sg35
I1
sg36
I2
sg37
I1
sg38
I2
sg39
I2
sg40
I2
sg41
I2
sg42
I2
sg43
I2
sg44
I1
sg45
I1
sg46
I1
sg47
I1
sg48
I2
sg49
I2
sg50
I1
sg51
I2
sg52
I2
sg53
I2
sg54
I2
sg55
I2
sg56
I2
sg57
I2
sg58
I1
sg59
I2
sg60
I2
sg61
I1
sg62
I2
sg63
I2
sg64
I2
sg65
I1
sg66
I1
sg67
I1
sg68
I2
sg69
I2
sg70
I2
sg71
I1
sg72
I2
sg73
I1
sg74
I1
sg75
I1
sg76
I1
ssg53
(dp127
g1
I2
sg3
I3
sg4
I2
sg5
I2
sg6
I2
sg7
I2
sg8
I3
sg9
I2
sg10
I2
sg11
I3
sg12
I3
sg13
I2
sg14
I2
sg15
I3
sg16
I2
sg17
I3
sg18
I2
sg19
I2
sg20
I2
sg21
I3
sg22
I2
sg23
I2
sg24
I2
sg25
I2
sg26
I2
sg27
I3
sg28
I3
sg29
I2
sg30
I3
sg31
I2
sg32
I2
sg33
I2
sg34
I2
sg35
I2
sg36
I2
sg37
I2
sg38
I2
sg39
I2
sg40
I3
sg41
I3
sg42
I2
sg43
I2
sg44
I2
sg45
I2
sg46
I2
sg47
I2
sg48
I2
sg49
I3
sg50
I2
sg51
I3
sg52
I2
sg53
I3
sg54
I2
sg55
I2
sg56
I2
sg57
I2
sg58
I2
sg59
I2
sg60
I2
sg61
I2
sg62
I2
sg63
I2
sg64
I3
sg65
I2
sg66
I2
sg67
I2
sg68
I3
sg69
I3
sg70
I2
sg71
I2
sg72
I2
sg73
I2
sg74
I2
sg75
I2
sg76
I2
ssg54
(dp128
g1
I2
sg3
I2
sg4
I1
sg5
I2
sg6
I2
sg7
I1
sg8
I2
sg9
I2
sg10
I2
sg11
I2
sg12
I2
sg13
I1
sg14
I2
sg15
I2
sg16
I2
sg17
I2
sg18
I2
sg19
I2
sg20
I2
sg21
I2
sg22
I2
sg23
I1
sg24
I2
sg25
I2
sg26
I2
sg27
I2
sg28
I2
sg29
I1
sg30
I2
sg31
I2
sg32
I1
sg33
I1
sg34
I2
sg35
I1
sg36
I2
sg37
I1
sg38
I2
sg39
I2
sg40
I2
sg41
I2
sg42
I2
sg43
I2
sg44
I1
sg45
I1
sg46
I1
sg47
I1
sg48
I2
sg49
I2
sg50
I1
sg51
I2
sg52
I2
sg53
I2
sg54
I2
sg55
I2
sg56
I2
sg57
I2
sg58
I1
sg59
I2
sg60
I2
sg61
I1
sg62
I2
sg63
I2
sg64
I2
sg65
I1
sg66
I1
sg67
I1
sg68
I2
sg69
I2
sg70
I2
sg71
I1
sg72
I2
sg73
I1
sg74
I1
sg75
I1
sg76
I1
ssg55
(dp129
g1
I2
sg3
I2
sg4
I1
sg5
I2
sg6
I2
sg7
I1
sg8
I2
sg9
I2
sg10
I2
sg11
I2
sg12
I2
sg13
I1
sg14
I2
sg15
I2
sg16
I2
sg17
I2
sg18
I2
sg19
I2
sg20
I2
sg21
I2
sg22
I2
sg23
I1
sg24
I2
sg25
I2
sg26
I2
sg27
I2
sg28
I2
sg29
I1
sg30
I2
sg31
I2
sg32
I1
sg33
I1
sg34
I2
sg35
I1
sg36
I2
sg37
I1
sg38
I2
sg39
I2
sg40
I2
sg41
I2
sg42
I2
sg43
I2
sg44
I1
sg45
I1
sg46
I1
sg47
I1
sg48
I2
sg49
I2
sg50
I1
sg51
I2
sg52
I2
sg53
I2
sg54
I2
sg55
I2
sg56
I2
sg57
I2
sg58
I1
sg59
I2
sg60
I2
sg61
I1
sg62
I2
sg63
I2
sg64
I2
sg65
I1
sg66
I1
sg67
I1
sg68
I2
sg69
I2
sg70
I2
sg71
I1
sg72
I2
sg73
I1
sg74
I1
sg75
I1
sg76
I1
ssg56
(dp130
g1
I2
sg3
I2
sg4
I1
sg5
I2
sg6
I2
sg7
I1
sg8
I2
sg9
I2
sg10
I2
sg11
I2
sg12
I2
sg13
I1
sg14
I2
sg15
I2
sg16
I2
sg17
I2
sg18
I2
sg19
I2
sg20
I2
sg21
I2
sg22
I2
sg23
I1
sg24
I2
sg25
I2
sg26
I2
sg27
I2
sg28
I2
sg29
I1
sg30
I2
sg31
I2
sg32
I1
sg33
I1
sg34
I2
sg35
I1
sg36
I2
sg37
I1
sg38
I2
sg39
I2
sg40
I2
sg41
I2
sg42
I2
sg43
I2
sg44
I1
sg45
I1
sg46
I1
sg47
I1
sg48
I2
sg49
I2
sg50
I1
sg51
I2
sg52
I2
sg53
I2
sg54
I2
sg55
I2
sg56
I2
sg57
I2
sg58
I1
sg59
I2
sg60
I2
sg61
I1
sg62
I2
sg63
I2
sg64
I2
sg65
I1
sg66
I1
sg67
I1
sg68
I2
sg69
I2
sg70
I2
sg71
I1
sg72
I2
sg73
I1
sg74
I1
sg75
I1
sg76
I1
ssg57
(dp131
g1
I2
sg3
I2
sg4
I1
sg5
I2
sg6
I2
sg7
I1
sg8
I2
sg9
I2
sg10
I2
sg11
I2
sg12
I2
sg13
I1
sg14
I2
sg15
I2
sg16
I2
sg17
I2
sg18
I2
sg19
I2
sg20
I2
sg21
I2
sg22
I2
sg23
I1
sg24
I2
sg25
I2
sg26
I2
sg27
I2
sg28
I2
sg29
I1
sg30
I2
sg31
I2
sg32
I1
sg33
I1
sg34
I2
sg35
I1
sg36
I2
sg37
I1
sg38
I2
sg39
I2
sg40
I2
sg41
I2
sg42
I2
sg43
I2
sg44
I1
sg45
I1
sg46
I1
sg47
I1
sg48
I2
sg49
I2
sg50
I1
sg51
I2
sg52
I2
sg53
I2
sg54
I2
sg55
I2
sg56
I2
sg57
I2
sg58
I1
sg59
I2
sg60
I2
sg61
I1
sg62
I2
sg63
I2
sg64
I2
sg65
I1
sg66
I1
sg67
I1
sg68
I2
sg69
I2
sg70
I2
sg71
I1
sg72
I2
sg73
I1
sg74
I1
sg75
I1
sg76
I1
ssg58
(dp132
g1
I1
sg3
I2
sg4
I2
sg5
I1
sg6
I1
sg7
I2
sg8
I2
sg9
I1
sg10
I1
sg11
I2
sg12
I2
sg13
I2
sg14
I1
sg15
I2
sg16
I1
sg17
I2
sg18
I1
sg19
I1
sg20
I1
sg21
I2
sg22
I1
sg23
I2
sg24
I1
sg25
I1
sg26
I1
sg27
I2
sg28
I2
sg29
I2
sg30
I2
sg31
I1
sg32
I2
sg33
I2
sg34
I1
sg35
I2
sg36
I1
sg37
I2
sg38
I1
sg39
I1
sg40
I2
sg41
I2
sg42
I1
sg43
I1
sg44
I2
sg45
I2
sg46
I2
sg47
I2
sg48
I1
sg49
I2
sg50
I2
sg51
I2
sg52
I1
sg53
I2
sg54
I1
sg55
I1
sg56
I1
sg57
I1
sg58
I2
sg59
I1
sg60
I1
sg61
I2
sg62
I1
sg63
I1
sg64
I2
sg65
I2
sg66
I2
sg67
I2
sg68
I2
sg69
I2
sg70
I1
sg71
I2
sg72
I1
sg73
I2
sg74
I2
sg75
I2
sg76
I2
ssg59
(dp133
g1
I2
sg3
I2
sg4
I1
sg5
I2
sg6
I2
sg7
I1
sg8
I2
sg9
I2
sg10
I2
sg11
I2
sg12
I2
sg13
I1
sg14
I2
sg15
I2
sg16
I2
sg17
I2
sg18
I2
sg19
I2
sg20
I2
sg21
I2
sg22
I2
sg23
I1
sg24
I2
sg25
I2
sg26
I2
sg27
I2
sg28
I2
sg29
I1
sg30
I2
sg31
I2
sg32
I1
sg33
I1
sg34
I2
sg35
I1
sg36
I2
sg37
I1
sg38
I2
sg39
I2
sg40
I2
sg41
I2
sg42
I2
sg43
I2
sg44
I1
sg45
I1
sg46
I1
sg47
I1
sg48
I2
sg49
I2
sg50
I1
sg51
I2
sg52
I2
sg53
I2
sg54
I2
sg55
I2
sg56
I2
sg57
I2
sg58
I1
sg59
I2
sg60
I2
sg61
I1
sg62
I2
sg63
I2
sg64
I2
sg65
I1
sg66
I1
sg67
I1
sg68
I2
sg69
I2
sg70
I2
sg71
I1
sg72
I2
sg73
I1
sg74
I1
sg75
I1
sg76
I1
ssg60
(dp134
g1
I2
sg3
I2
sg4
I1
sg5
I2
sg6
I2
sg7
I1
sg8
I2
sg9
I2
sg10
I2
sg11
I2
sg12
I2
sg13
I1
sg14
I2
sg15
I2
sg16
I2
sg17
I2
sg18
I2
sg19
I2
sg20
I2
sg21
I2
sg22
I2
sg23
I1
sg24
I2
sg25
I2
sg26
I2
sg27
I2
sg28
I2
sg29
I1
sg30
I2
sg31
I2
sg32
I1
sg33
I1
sg34
I2
sg35
I1
sg36
I2
sg37
I1
sg38
I2
sg39
I2
sg40
I2
sg41
I2
sg42
I2
sg43
I2
sg44
I1
sg45
I1
sg46
I1
sg47
I1
sg48
I2
sg49
I2
sg50
I1
sg51
I2
sg52
I2
sg53
I2
sg54
I2
sg55
I2
sg56
I2
sg57
I2
sg58
I1
sg59
I2
sg60
I2
sg61
I1
sg62
I2
sg63
I2
sg64
I2
sg65
I1
sg66
I1
sg67
I1
sg68
I2
sg69
I2
sg70
I2
sg71
I1
sg72
I2
sg73
I1
sg74
I1
sg75
I1
sg76
I1
ssg61
(dp135
g1
I1
sg3
I2
sg4
I2
sg5
I1
sg6
I1
sg7
I2
sg8
I2
sg9
I1
sg10
I1
sg11
I2
sg12
I2
sg13
I2
sg14
I1
sg15
I2
sg16
I1
sg17
I2
sg18
I1
sg19
I1
sg20
I1
sg21
I2
sg22
I1
sg23
I2
sg24
I1
sg25
I1
sg26
I1
sg27
I2
sg28
I2
sg29
I2
sg30
I2
sg31
I1
sg32
I2
sg33
I2
sg34
I1
sg35
I2
sg36
I1
sg37
I2
sg38
I1
sg39
I1
sg40
I2
sg41
I2
sg42
I1
sg43
I1
sg44
I2
sg45
I2
sg46
I2
sg47
I2
sg48
I1
sg49
I2
sg50
I2
sg51
I2
sg52
I1
sg53
I2
sg54
I1
sg55
I1
sg56
I1
sg57
I1
sg58
I2
sg59
I1
sg60
I1
sg61
I2
sg62
I1
sg63
I1
sg64
I2
sg65
I2
sg66
I2
sg67
I2
sg68
I2
sg69
I2
sg70
I1
sg71
I2
sg72
I1
sg73
I2
sg74
I2
sg75
I2
sg76
I2
ssg62
(dp136
g1
I2
sg3
I2
sg4
I1
sg5
I2
sg6
I2
sg7
I1
sg8
I2
sg9
I2
sg10
I2
sg11
I2
sg12
I2
sg13
I1
sg14
I2
sg15
I2
sg16
I2
sg17
I2
sg18
I2
sg19
I2
sg20
I2
sg21
I2
sg22
I2
sg23
I1
sg24
I2
sg25
I2
sg26
I2
sg27
I2
sg28
I2
sg29
I1
sg30
I2
sg31
I2
sg32
I1
sg33
I1
sg34
I2
sg35
I1
sg36
I2
sg37
I1
sg38
I2
sg39
I2
sg40
I2
sg41
I2
sg42
I2
sg43
I2
sg44
I1
sg45
I1
sg46
I1
sg47
I1
sg48
I2
sg49
I2
sg50
I1
sg51
I2
sg52
I2
sg53
I2
sg54
I2
sg55
I2
sg56
I2
sg57
I2
sg58
I1
sg59
I2
sg60
I2
sg61
I1
sg62
I2
sg63
I2
sg64
I2
sg65
I1
sg66
I1
sg67
I1
sg68
I2
sg69
I2
sg70
I2
sg71
I1
sg72
I2
sg73
I1
sg74
I1
sg75
I1
sg76
I1
ssg63
(dp137
g1
I2
sg3
I2
sg4
I1
sg5
I2
sg6
I2
sg7
I1
sg8
I2
sg9
I2
sg10
I2
sg11
I2
sg12
I2
sg13
I1
sg14
I2
sg15
I2
sg16
I2
sg17
I2
sg18
I2
sg19
I2
sg20
I2
sg21
I2
sg22
I2
sg23
I1
sg24
I2
sg25
I2
sg26
I2
sg27
I2
sg28
I2
sg29
I1
sg30
I2
sg31
I2
sg32
I1
sg33
I1
sg34
I2
sg35
I1
sg36
I2
sg37
I1
sg38
I2
sg39
I2
sg40
I2
sg41
I2
sg42
I2
sg43
I2
sg44
I1
sg45
I1
sg46
I1
sg47
I1
sg48
I2
sg49
I2
sg50
I1
sg51
I2
sg52
I2
sg53
I2
sg54
I2
sg55
I2
sg56
I2
sg57
I2
sg58
I1
sg59
I2
sg60
I2
sg61
I1
sg62
I2
sg63
I2
sg64
I2
sg65
I1
sg66
I1
sg67
I1
sg68
I2
sg69
I2
sg70
I2
sg71
I1
sg72
I2
sg73
I1
sg74
I1
sg75
I1
sg76
I1
ssg64
(dp138
g1
I2
sg3
I3
sg4
I2
sg5
I2
sg6
I2
sg7
I2
sg8
I3
sg9
I2
sg10
I2
sg11
I3
sg12
I3
sg13
I2
sg14
I2
sg15
I3
sg16
I2
sg17
I3
sg18
I2
sg19
I2
sg20
I2
sg21
I3
sg22
I2
sg23
I2
sg24
I2
sg25
I2
sg26
I2
sg27
I3
sg28
I3
sg29
I2
sg30
I3
sg31
I2
sg32
I2
sg33
I2
sg34
I2
sg35
I2
sg36
I2
sg37
I2
sg38
I2
sg39
I2
sg40
I3
sg41
I3
sg42
I2
sg43
I2
sg44
I2
sg45
I2
sg46
I2
sg47
I2
sg48
I2
sg49
I3
sg50
I2
sg51
I3
sg52
I2
sg53
I3
sg54
I2
sg55
I2
sg56
I2
sg57
I2
sg58
I2
sg59
I2
sg60
I2
sg61
I2
sg62
I2
sg63
I2
sg64
I3
sg65
I2
sg66
I2
sg67
I2
sg68
I3
sg69
I3
sg70
I2
sg71
I2
sg72
I2
sg73
I2
sg74
I2
sg75
I2
sg76
I2
ssg65
(dp139
g1
I1
sg3
I2
sg4
I2
sg5
I1
sg6
I1
sg7
I2
sg8
I2
sg9
I1
sg10
I1
sg11
I2
sg12
I2
sg13
I2
sg14
I1
sg15
I2
sg16
I1
sg17
I2
sg18
I1
sg19
I1
sg20
I1
sg21
I2
sg22
I1
sg23
I2
sg24
I1
sg25
I1
sg26
I1
sg27
I2
sg28
I2
sg29
I2
sg30
I2
sg31
I1
sg32
I2
sg33
I2
sg34
I1
sg35
I2
sg36
I1
sg37
I2
sg38
I1
sg39
I1
sg40
I2
sg41
I2
sg42
I1
sg43
I1
sg44
I2
sg45
I2
sg46
I2
sg47
I2
sg48
I1
sg49
I2
sg50
I2
sg51
I2
sg52
I1
sg53
I2
sg54
I1
sg55
I1
sg56
I1
sg57
I1
sg58
I2
sg59
I1
sg60
I1
sg61
I2
sg62
I1
sg63
I1
sg64
I2
sg65
I2
sg66
I2
sg67
I2
sg68
I2
sg69
I2
sg70
I1
sg71
I2
sg72
I1
sg73
I2
sg74
I2
sg75
I2
sg76
I2
ssg66
(dp140
g1
I1
sg3
I2
sg4
I2
sg5
I1
sg6
I1
sg7
I2
sg8
I2
sg9
I1
sg10
I1
sg11
I2
sg12
I2
sg13
I2
sg14
I1
sg15
I2
sg16
I1
sg17
I2
sg18
I1
sg19
I1
sg20
I1
sg21
I2
sg22
I1
sg23
I2
sg24
I1
sg25
I1
sg26
I1
sg27
I2
sg28
I2
sg29
I2
sg30
I2
sg31
I1
sg32
I2
sg33
I2
sg34
I1
sg35
I2
sg36
I1
sg37
I2
sg38
I1
sg39
I1
sg40
I2
sg41
I2
sg42
I1
sg43
I1
sg44
I2
sg45
I2
sg46
I2
sg47
I2
sg48
I1
sg49
I2
sg50
I2
sg51
I2
sg52
I1
sg53
I2
sg54
I1
sg55
I1
sg56
I1
sg57
I1
sg58
I2
sg59
I1
sg60
I1
sg61
I2
sg62
I1
sg63
I1
sg64
I2
sg65
I2
sg66
I2
sg67
I2
sg68
I2
sg69
I2
sg70
I1
sg71
I2
sg72
I1
sg73
I2
sg74
I2
sg75
I2
sg76
I2
ssg67
(dp141
g1
I1
sg3
I2
sg4
I2
sg5
I1
sg6
I1
sg7
I2
sg8
I2
sg9
I1
sg10
I1
sg11
I2
sg12
I2
sg13
I2
sg14
I1
sg15
I2
sg16
I1
sg17
I2
sg18
I1
sg19
I1
sg20
I1
sg21
I2
sg22
I1
sg23
I2
sg24
I1
sg25
I1
sg26
I1
sg27
I2
sg28
I2
sg29
I2
sg30
I2
sg31
I1
sg32
I2
sg33
I2
sg34
I1
sg35
I2
sg36
I1
sg37
I2
sg38
I1
sg39
I1
sg40
I2
sg41
I2
sg42
I1
sg43
I1
sg44
I2
sg45
I2
sg46
I2
sg47
I2
sg48
I1
sg49
I2
sg50
I2
sg51
I2
sg52
I1
sg53
I2
sg54
I1
sg55
I1
sg56
I1
sg57
I1
sg58
I2
sg59
I1
sg60
I1
sg61
I2
sg62
I1
sg63
I1
sg64
I2
sg65
I2
sg66
I2
sg67
I2
sg68
I2
sg69
I2
sg70
I1
sg71
I2
sg72
I1
sg73
I2
sg74
I2
sg75
I2
sg76
I2
ssg68
(dp142
g1
I2
sg3
I3
sg4
I2
sg5
I2
sg6
I2
sg7
I2
sg8
I3
sg9
I2
sg10
I2
sg11
I3
sg12
I3
sg13
I2
sg14
I2
sg15
I3
sg16
I2
sg17
I3
sg18
I2
sg19
I2
sg20
I2
sg21
I3
sg22
I2
sg23
I2
sg24
I2
sg25
I2
sg26
I2
sg27
I3
sg28
I3
sg29
I2
sg30
I3
sg31
I2
sg32
I2
sg33
I2
sg34
I2
sg35
I2
sg36
I2
sg37
I2
sg38
I2
sg39
I2
sg40
I3
sg41
I3
sg42
I2
sg43
I2
sg44
I2
sg45
I2
sg46
I2
sg47
I2
sg48
I2
sg49
I3
sg50
I2
sg51
I3
sg52
I2
sg53
I3
sg54
I2
sg55
I2
sg56
I2
sg57
I2
sg58
I2
sg59
I2
sg60
I2
sg61
I2
sg62
I2
sg63
I2
sg64
I3
sg65
I2
sg66
I2
sg67
I2
sg68
I3
sg69
I3
sg70
I2
sg71
I2
sg72
I2
sg73
I2
sg74
I2
sg75
I2
sg76
I2
ssg69
(dp143
g1
I2
sg3
I3
sg4
I2
sg5
I2
sg6
I2
sg7
I2
sg8
I3
sg9
I2
sg10
I2
sg11
I3
sg12
I3
sg13
I2
sg14
I2
sg15
I3
sg16
I2
sg17
I3
sg18
I2
sg19
I2
sg20
I2
sg21
I3
sg22
I2
sg23
I2
sg24
I2
sg25
I2
sg26
I2
sg27
I3
sg28
I3
sg29
I2
sg30
I3
sg31
I2
sg32
I2
sg33
I2
sg34
I2
sg35
I2
sg36
I2
sg37
I2
sg38
I2
sg39
I2
sg40
I3
sg41
I3
sg42
I2
sg43
I2
sg44
I2
sg45
I2
sg46
I2
sg47
I2
sg48
I2
sg49
I3
sg50
I2
sg51
I3
sg52
I2
sg53
I3
sg54
I2
sg55
I2
sg56
I2
sg57
I2
sg58
I2
sg59
I2
sg60
I2
sg61
I2
sg62
I2
sg63
I2
sg64
I3
sg65
I2
sg66
I2
sg67
I2
sg68
I3
sg69
I3
sg70
I2
sg71
I2
sg72
I2
sg73
I2
sg74
I2
sg75
I2
sg76
I2
ssg70
(dp144
g1
I2
sg3
I2
sg4
I1
sg5
I2
sg6
I2
sg7
I1
sg8
I2
sg9
I2
sg10
I2
sg11
I2
sg12
I2
sg13
I1
sg14
I2
sg15
I2
sg16
I2
sg17
I2
sg18
I2
sg19
I2
sg20
I2
sg21
I2
sg22
I2
sg23
I1
sg24
I2
sg25
I2
sg26
I2
sg27
I2
sg28
I2
sg29
I1
sg30
I2
sg31
I2
sg32
I1
sg33
I1
sg34
I2
sg35
I1
sg36
I2
sg37
I1
sg38
I2
sg39
I2
sg40
I2
sg41
I2
sg42
I2
sg43
I2
sg44
I1
sg45
I1
sg46
I1
sg47
I1
sg48
I2
sg49
I2
sg50
I1
sg51
I2
sg52
I2
sg53
I2
sg54
I2
sg55
I2
sg56
I2
sg57
I2
sg58
I1
sg59
I2
sg60
I2
sg61
I1
sg62
I2
sg63
I2
sg64
I2
sg65
I1
sg66
I1
sg67
I1
sg68
I2
sg69
I2
sg70
I2
sg71
I1
sg72
I2
sg73
I1
sg74
I1
sg75
I1
sg76
I1
ssg71
(dp145
g1
I1
sg3
I2
sg4
I2
sg5
I1
sg6
I1
sg7
I2
sg8
I2
sg9
I1
sg10
I1
sg11
I2
sg12
I2
sg13
I2
sg14
I1
sg15
I2
sg16
I1
sg17
I2
sg18
I1
sg19
I1
sg20
I1
sg21
I2
sg22
I1
sg23
I2
sg24
I1
sg25
I1
sg26
I1
sg27
I2
sg28
I2
sg29
I2
sg30
I2
sg31
I1
sg32
I2
sg33
I2
sg34
I1
sg35
I2
sg36
I1
sg37
I2
sg38
I1
sg39
I1
sg40
I2
sg41
I2
sg42
I1
sg43
I1
sg44
I2
sg45
I2
sg46
I2
sg47
I2
sg48
I1
sg49
I2
sg50
I2
sg51
I2
sg52
I1
sg53
I2
sg54
I1
sg55
I1
sg56
I1
sg57
I1
sg58
I2
sg59
I1
sg60
I1
sg61
I2
sg62
I1
sg63
I1
sg64
I2
sg65
I2
sg66
I2
sg67
I2
sg68
I2
sg69
I2
sg70
I1
sg71
I2
sg72
I1
sg73
I2
sg74
I2
sg75
I2
sg76
I2
ssg72
(dp146
g1
I2
sg3
I2
sg4
I1
sg5
I2
sg6
I2
sg7
I1
sg8
I2
sg9
I2
sg10
I2
sg11
I2
sg12
I2
sg13
I1
sg14
I2
sg15
I2
sg16
I2
sg17
I2
sg18
I2
sg19
I2
sg20
I2
sg21
I2
sg22
I2
sg23
I1
sg24
I2
sg25
I2
sg26
I2
sg27
I2
sg28
I2
sg29
I1
sg30
I2
sg31
I2
sg32
I1
sg33
I1
sg34
I2
sg35
I1
sg36
I2
sg37
I1
sg38
I2
sg39
I2
sg40
I2
sg41
I2
sg42
I2
sg43
I2
sg44
I1
sg45
I1
sg46
I1
sg47
I1
sg48
I2
sg49
I2
sg50
I1
sg51
I2
sg52
I2
sg53
I2
sg54
I2
sg55
I2
sg56
I2
sg57
I2
sg58
I1
sg59
I2
sg60
I2
sg61
I1
sg62
I2
sg63
I2
sg64
I2
sg65
I1
sg66
I1
sg67
I1
sg68
I2
sg69
I2
sg70
I2
sg71
I1
sg72
I2
sg73
I1
sg74
I1
sg75
I1
sg76
I1
ssg73
(dp147
g1
I1
sg3
I2
sg4
I2
sg5
I1
sg6
I1
sg7
I2
sg8
I2
sg9
I1
sg10
I1
sg11
I2
sg12
I2
sg13
I2
sg14
I1
sg15
I2
sg16
I1
sg17
I2
sg18
I1
sg19
I1
sg20
I1
sg21
I2
sg22
I1
sg23
I2
sg24
I1
sg25
I1
sg26
I1
sg27
I2
sg28
I2
sg29
I2
sg30
I2
sg31
I1
sg32
I2
sg33
I2
sg34
I1
sg35
I2
sg36
I1
sg37
I2
sg38
I1
sg39
I1
sg40
I2
sg41
I2
sg42
I1
sg43
I1
sg44
I2
sg45
I2
sg46
I2
sg47
I2
sg48
I1
sg49
I2
sg50
I2
sg51
I2
sg52
I1
sg53
I2
sg54
I1
sg55
I1
sg56
I1
sg57
I1
sg58
I2
sg59
I1
sg60
I1
sg61
I2
sg62
I1
sg63
I1
sg64
I2
sg65
I2
sg66
I2
sg67
I2
sg68
I2
sg69
I2
sg70
I1
sg71
I2
sg72
I1
sg73
I2
sg74
I2
sg75
I2
sg76
I2
ssg74
(dp148
g1
I1
sg3
I2
sg4
I2
sg5
I1
sg6
I1
sg7
I2
sg8
I2
sg9
I1
sg10
I1
sg11
I2
sg12
I2
sg13
I2
sg14
I1
sg15
I2
sg16
I1
sg17
I2
sg18
I1
sg19
I1
sg20
I1
sg21
I2
sg22
I1
sg23
I2
sg24
I1
sg25
I1
sg26
I1
sg27
I2
sg28
I2
sg29
I2
sg30
I2
sg31
I1
sg32
I2
sg33
I2
sg34
I1
sg35
I2
sg36
I1
sg37
I2
sg38
I1
sg39
I1
sg40
I2
sg41
I2
sg42
I1
sg43
I1
sg44
I2
sg45
I2
sg46
I2
sg47
I2
sg48
I1
sg49
I2
sg50
I2
sg51
I2
sg52
I1
sg53
I2
sg54
I1
sg55
I1
sg56
I1
sg57
I1
sg58
I2
sg59
I1
sg60
I1
sg61
I2
sg62
I1
sg63
I1
sg64
I2
sg65
I2
sg66
I2
sg67
I2
sg68
I2
sg69
I2
sg70
I1
sg71
I2
sg72
I1
sg73
I2
sg74
I2
sg75
I2
sg76
I2
ssg75
(dp149
g1
I1
sg3
I2
sg4
I2
sg5
I1
sg6
I1
sg7
I2
sg8
I2
sg9
I1
sg10
I1
sg11
I2
sg12
I2
sg13
I2
sg14
I1
sg15
I2
sg16
I1
sg17
I2
sg18
I1
sg19
I1
sg20
I1
sg21
I2
sg22
I1
sg23
I2
sg24
I1
sg25
I1
sg26
I1
sg27
I2
sg28
I2
sg29
I2
sg30
I2
sg31
I1
sg32
I2
sg33
I2
sg34
I1
sg35
I2
sg36
I1
sg37
I2
sg38
I1
sg39
I1
sg40
I2
sg41
I2
sg42
I1
sg43
I1
sg44
I2
sg45
I2
sg46
I2
sg47
I2
sg48
I1
sg49
I2
sg50
I2
sg51
I2
sg52
I1
sg53
I2
sg54
I1
sg55
I1
sg56
I1
sg57
I1
sg58
I2
sg59
I1
sg60
I1
sg61
I2
sg62
I1
sg63
I1
sg64
I2
sg65
I2
sg66
I2
sg67
I2
sg68
I2
sg69
I2
sg70
I1
sg71
I2
sg72
I1
sg73
I2
sg74
I2
sg75
I2
sg76
I2
ssg76
(dp150
g1
I1
sg3
I2
sg4
I2
sg5
I1
sg6
I1
sg7
I2
sg8
I2
sg9
I1
sg10
I1
sg11
I2
sg12
I2
sg13
I2
sg14
I1
sg15
I2
sg16
I1
sg17
I2
sg18
I1
sg19
I1
sg20
I1
sg21
I2
sg22
I1
sg23
I2
sg24
I1
sg25
I1
sg26
I1
sg27
I2
sg28
I2
sg29
I2
sg30
I2
sg31
I1
sg32
I2
sg33
I2
sg34
I1
sg35
I2
sg36
I1
sg37
I2
sg38
I1
sg39
I1
sg40
I2
sg41
I2
sg42
I1
sg43
I1
sg44
I2
sg45
I2
sg46
I2
sg47
I2
sg48
I1
sg49
I2
sg50
I2
sg51
I2
sg52
I1
sg53
I2
sg54
I1
sg55
I1
sg56
I1
sg57
I1
sg58
I2
sg59
I1
sg60
I1
sg61
I2
sg62
I1
sg63
I1
sg64
I2
sg65
I2
sg66
I2
sg67
I2
sg68
I2
sg69
I2
sg70
I1
sg71
I2
sg72
I1
sg73
I2
sg74
I2
sg75
I2
sg76
I2
ss(dp151
VCSE
p152
(dp153
VCOM200
p154
I1
sVPHY616A
p155
I1
sVLIF101A
p156
I1
sVPHY399A
p157
I1
sVPHY306A
p158
I1
sVPHY103A
p159
I1
sVECO221A
p160
I1
sVPHY301A
p161
I1
sVPHY473A
p162
I1
sVPE101A
p163
I1
sVPHY101A
p164
I1
sVTA201A
p165
I1
sVENG112C
p166
I1
sVCS350A
p167
I1
sVESC201A
p168
I1
sVCS315A
p169
I1
sVESO203A
p170
I1
sVCHM101A
p171
I1
sVESO207A
p172
I1
sVPHY552A
p173
I1
sVPHY401A
p174
I1
sVMTH101A
p175
I1
sVTA101A
p176
I1
sVART105A
p177
I1
sVPHY226B
p178
I1
sVPE102A
p179
I1
sVPHY210A
p180
I1
sVPHY102A
p181
I1
sVPHY461A
p182
I1
sVESC101A
p183
I1
sVCS628A
p184
I1
sVPSO201A
p185
I1
sVTA202A
p186
I1
sVCS654A
p187
I1
sVPHY431A
p188
I1
sVPHY224A
p189
I1
sVCHM102A
p190
I1
sVMTH102A
p191
I1
sVPHY315A
p192
I1
sVESO204A
p193
I1
sVPHY412A
p194
I1
sVPHY421A
p195
I1
ssVECO
p196
(dp197
VMSO201A
p198
I1
sVCOM200
p199
I1
sVMSO203B
p200
I1
sVECO311A
p201
I1
sVLIF101A
p202
I1
sVECO506A
p203
I1
sVMTH423A
p204
I1
sVPHY103A
p205
I1
sVECO221A
p206
I1
sVECO398A
p207
I1
sVPE101A
p208
I1
sVECO541A
p209
I1
sVPHY101A
p210
I1
sVMTH302A
p211
I1
sVECO753A
p212
I1
sVECO760A
p213
I1
sVTA201A
p214
I1
sVECO502A
p215
I1
sVECO413A
p216
I1
sVECO543A
p217
I1
sVESO201A
p218
I1
sVESC201A
p219
I1
sVESO207A
p220
I1
sVCHM101A
p221
I1
sVECO261A
p222
I1
sVECO411A
p223
I1
sVPSY151A
p224
I1
sVMTH421A
p225
I1
sVMTH308A
p226
I1
sVMTH101A
p227
I1
sVTA101A
p228
I1
sVECO341A
p229
I1
sVMSO202A
p230
I1
sVECO321A
p231
I1
sVPE102A
p232
I1
sVPHY102A
p233
I1
sVECO201A
p234
I1
sVESC101A
p235
I1
sVECO399A
p236
I1
sVECO301A
p237
I1
sVESO208A
p238
I1
sVENG433A
p239
I1
sVPHI141A
p240
I1
sVMTH301A
p241
I1
sVECO397A
p242
I1
sVMTH305A
p243
I1
sVTA202A
p244
I1
sVCHM102A
p245
I1
sVMTH102A
p246
I1
sVPSY458A
p247
I1
sVECO342A
p248
I1
ssVPHY
p249
(dp250
g1
I1
sg3
I1
sg4
I1
sg5
I1
sg6
I1
sg7
I1
sg8
I1
sg9
I1
sg10
I1
sg11
I1
sg12
I1
sg13
I1
sg14
I1
sg15
I1
sg16
I1
sg17
I1
sg18
I1
sg19
I1
sg20
I1
sg21
I1
sg22
I1
sg23
I1
sg24
I1
sg25
I1
sg26
I1
sg27
I1
sg28
I1
sg29
I1
sg30
I1
sg31
I1
sg32
I1
sg33
I1
sg34
I1
sg35
I1
sg36
I1
sg37
I1
sg38
I1
sg39
I1
sg40
I1
sg41
I1
sg42
I1
sg43
I1
sg44
I1
sg45
I1
sg46
I1
sg47
I1
sg48
I1
sg49
I1
sg50
I1
sg51
I1
sg52
I1
sg53
I1
sg54
I1
sg55
I1
sg56
I1
sg57
I1
sg58
I1
sg59
I1
sg60
I1
sg61
I1
sg62
I1
sg63
I1
sg64
I1
sg65
I1
sg66
I1
sg67
I1
sg68
I1
sg69
I1
sg70
I1
sg71
I1
sg72
I1
sg73
I1
sg74
I1
sg75
I1
sg76
I1
sstp251
.