(dp0
V12178
p1
(dp2
S'dept'
p3
VCSE
p4
sS'courses'
p5
(lp6
VCHM101A
p7
aVESC101A
p8
aVMTH101A
p9
aVPE101A
p10
aVPHY103A
p11
aVPSY151A
p12
aVCHM102A
p13
aVLIF101A
p14
aVMTH102A
p15
aVPE102A
p16
aVPHY101A
p17
aVPHY102A
p18
aVTA101A
p19
aVCOM200
p20
aVCS210A
p21
aVCS251A
p22
aVESC201A
p23
aVESO202A
p24
aVESO204A
p25
aVTA201A
p26
aVART105A
p27
aVCS201A
p28
aVCS202A
p29
aVCS203B
p30
aVCS220A
p31
aVMSO201A
p32
aVTA202A
p33
aVCS252A
p34
aVCS300A
p35
aVCS330A
p36
aVCS340A
p37
aVCS345A
p38
aVCS360A
p39
aVCS315A
p40
aVCS335A
p41
aVCS656A
p42
aVCS771A
p43
aVPSY458A
p44
aVCS350A
p45
aVCS498A
p46
aVCS671A
p47
aVESO209A
p48
aVSOC486A
p49
aVCS628A
p50
aVCS654A
p51
aVCS676A
p52
aVCS772A
p53
aVPSY451A
p54
ass.