(dp0
V12298
p1
(dp2
S'dept'
p3
VPHY
p4
sS'courses'
p5
(lp6
VLIF101A
p7
aVMTH101A
p8
aVPE101A
p9
aVPHY101A
p10
aVPHY102A
p11
aVPSY151A
p12
aVTA101A
p13
aVCHM101A
p14
aVCHM102A
p15
aVESC101A
p16
aVMTH102A
p17
aVPE102A
p18
aVPHY103A
p19
aVCOM200
p20
aVECO201A
p21
aVESO201A
p22
aVESO208A
p23
aVPHI141A
p24
aVTA202A
p25
aVECO221A
p26
aVECO261A
p27
aVESC201A
p28
aVMSO201A
p29
aVMTH302A
p30
aVTA201A
p31
aVECO301A
p32
aVECO341A
p33
aVECO397A
p34
aVECO398A
p35
aVESO207A
p36
aVMSO202A
p37
aVMSO203B
p38
aVPSY458A
p39
aVECO311A
p40
aVECO342A
p41
aVECO502A
p42
aVECO506A
p43
aVENG433A
p44
aVMTH308A
p45
aVECO321A
p46
aVECO411A
p47
aVECO760A
p48
aVMTH301A
p49
aVMTH305A
p50
aVMTH423A
p51
aVECO399A
p52
aVECO413A
p53
aVECO541A
p54
aVECO543A
p55
aVECO753A
p56
aVMTH421A
p57
aVENG112C
p58
aVART105A
p59
aVESO204A
p60
aVPHY224A
p61
aVPHY210A
p62
aVPHY226B
p63
aVPSO201A
p64
aVCS350A
p65
aVPHY315A
p66
aVPHY401A
p67
aVPHY431A
p68
aVCS315A
p69
aVESO203A
p70
aVPHY399A
p71
aVPHY412A
p72
aVPHY473A
p73
aVPHY616A
p74
aVPHY301A
p75
aVPHY421A
p76
aVPHY461A
p77
aVPHY552A
p78
aVCS628A
p79
aVCS654A
p80
aVPHY306A
p81
assV12178
p82
(dp83
S'dept'
p84
VCSE
p85
sS'courses'
p86
(lp87
VCHM101A
p88
aVESC101A
p89
aVMTH101A
p90
aVPE101A
p91
aVPHY103A
p92
aVPSY151A
p93
aVCHM102A
p94
aVLIF101A
p95
aVMTH102A
p96
aVPE102A
p97
aVPHY101A
p98
aVPHY102A
p99
aVTA101A
p100
aVCOM200
p101
aVCS210A
p102
aVCS251A
p103
aVESC201A
p104
aVESO202A
p105
aVESO204A
p106
aVTA201A
p107
aVART105A
p108
aVCS201A
p109
aVCS202A
p110
aVCS203B
p111
aVCS220A
p112
aVMSO201A
p113
aVTA202A
p114
aVCS252A
p115
aVCS300A
p116
aVCS330A
p117
aVCS340A
p118
aVCS345A
p119
aVCS360A
p120
aVCS315A
p121
aVCS335A
p122
aVCS656A
p123
aVCS771A
p124
aVPSY458A
p125
aVCS350A
p126
aVCS498A
p127
aVCS671A
p128
aVESO209A
p129
aVSOC486A
p130
assV12728
p131
(dp132
S'dept'
p133
VECO
p134
sS'courses'
p135
(lp136
VLIF101A
p137
aVMTH101A
p138
aVPE101A
p139
aVPHY101A
p140
aVPHY102A
p141
aVPSY151A
p142
aVTA101A
p143
aVCHM101A
p144
aVCHM102A
p145
aVESC101A
p146
aVMTH102A
p147
aVPE102A
p148
aVPHY103A
p149
aVCOM200
p150
aVECO201A
p151
aVESO201A
p152
aVESO208A
p153
aVPHI141A
p154
aVTA202A
p155
aVECO221A
p156
aVECO261A
p157
aVESC201A
p158
aVMSO201A
p159
aVMTH302A
p160
aVTA201A
p161
aVECO301A
p162
aVECO341A
p163
aVECO397A
p164
aVECO398A
p165
aVESO207A
p166
aVMSO202A
p167
aVMSO203B
p168
aVPSY458A
p169
aVECO311A
p170
aVECO342A
p171
aVECO502A
p172
aVECO506A
p173
aVENG433A
p174
aVMTH308A
p175
aVECO321A
p176
aVECO411A
p177
aVECO760A
p178
aVMTH301A
p179
aVMTH305A
p180
aVMTH423A
p181
aVECO399A
p182
aVECO413A
p183
aVECO541A
p184
aVECO543A
p185
aVECO753A
p186
aVMTH421A
p187
ass.